ARM GAS  C:\Users\Mr.Zhu\AppData\Local\Temp\ccZHI58l.s 			page 1


   1              		.cpu cortex-m3
   2              		.eabi_attribute 20, 1
   3              		.eabi_attribute 21, 1
   4              		.eabi_attribute 23, 3
   5              		.eabi_attribute 24, 1
   6              		.eabi_attribute 25, 1
   7              		.eabi_attribute 26, 1
   8              		.eabi_attribute 30, 1
   9              		.eabi_attribute 34, 1
  10              		.eabi_attribute 18, 4
  11              		.file	"DT.c"
  12              		.text
  13              	.Ltext0:
  14              		.cfi_sections	.debug_frame
  15              		.section	.text.DT_SendF1,"ax",%progbits
  16              		.align	1
  17              		.global	DT_SendF1
  18              		.arch armv7-m
  19              		.syntax unified
  20              		.thumb
  21              		.thumb_func
  22              		.fpu softvfp
  24              	DT_SendF1:
  25              	.LVL0:
  26              	.LFB68:
  27              		.file 1 "Core/Src/DT.c"
   1:Core/Src/DT.c **** #include "DT.h"
   2:Core/Src/DT.c **** #include "usart.h"
   3:Core/Src/DT.c **** 
   4:Core/Src/DT.c **** #define BYTE0(dwTemp)     (*(char*)(&dwTemp))
   5:Core/Src/DT.c **** #define BYTE1(dwTemp)     (*((char*)(&dwTemp)+1))
   6:Core/Src/DT.c **** #define BYTE2(dwTemp)     (*((char*)(&dwTemp)+2))
   7:Core/Src/DT.c **** #define BYTE3(dwTemp)     (*((char*)(&dwTemp)+3))
   8:Core/Src/DT.c **** 
   9:Core/Src/DT.c **** uint8_t DataToSend[100];
  10:Core/Src/DT.c **** //×Ô¶¨ÒåÖ¡
  11:Core/Src/DT.c **** void DT_SendF1(int16_t a_1, int16_t a_2,int16_t a_3,int16_t a_4,int16_t a_5,int16_t a_6) {
  28              		.loc 1 11 90 view -0
  29              		.cfi_startproc
  30              		@ args = 8, pretend = 0, frame = 0
  31              		@ frame_needed = 0, uses_anonymous_args = 0
  32              		.loc 1 11 90 is_stmt 0 view .LVU1
  33 0000 30B5     		push	{r4, r5, lr}
  34              	.LCFI0:
  35              		.cfi_def_cfa_offset 12
  36              		.cfi_offset 4, -12
  37              		.cfi_offset 5, -8
  38              		.cfi_offset 14, -4
  39 0002 9446     		mov	ip, r2
  40 0004 BDF90CE0 		ldrsh	lr, [sp, #12]
  41 0008 BDF91050 		ldrsh	r5, [sp, #16]
  12:Core/Src/DT.c **** 	uint8_t _cnt = 0;
  42              		.loc 1 12 2 is_stmt 1 view .LVU2
  43              	.LVL1:
  13:Core/Src/DT.c **** 	
  14:Core/Src/DT.c **** 	DataToSend[_cnt++] = 0XAA;
  44              		.loc 1 14 2 view .LVU3
ARM GAS  C:\Users\Mr.Zhu\AppData\Local\Temp\ccZHI58l.s 			page 2


  45              		.loc 1 14 21 is_stmt 0 view .LVU4
  46 000c 1B4C     		ldr	r4, .L5
  47 000e AA22     		movs	r2, #170
  48              	.LVL2:
  49              		.loc 1 14 21 view .LVU5
  50 0010 2270     		strb	r2, [r4]
  15:Core/Src/DT.c **** 	DataToSend[_cnt++] = 0XFF;
  51              		.loc 1 15 2 is_stmt 1 view .LVU6
  52              	.LVL3:
  53              		.loc 1 15 21 is_stmt 0 view .LVU7
  54 0012 FF22     		movs	r2, #255
  55 0014 6270     		strb	r2, [r4, #1]
  16:Core/Src/DT.c **** 	DataToSend[_cnt++] = 0XF1;
  56              		.loc 1 16 2 is_stmt 1 view .LVU8
  57              	.LVL4:
  58              		.loc 1 16 21 is_stmt 0 view .LVU9
  59 0016 F122     		movs	r2, #241
  60 0018 A270     		strb	r2, [r4, #2]
  17:Core/Src/DT.c **** 	DataToSend[_cnt++] = 0;
  61              		.loc 1 17 2 is_stmt 1 view .LVU10
  62              	.LVL5:
  63              		.loc 1 17 21 is_stmt 0 view .LVU11
  64 001a 0022     		movs	r2, #0
  65 001c E270     		strb	r2, [r4, #3]
  18:Core/Src/DT.c **** 	
  19:Core/Src/DT.c **** 	DataToSend[_cnt++] = BYTE0(a_1);
  66              		.loc 1 19 2 is_stmt 1 view .LVU12
  67              	.LVL6:
  68              		.loc 1 19 21 is_stmt 0 view .LVU13
  69 001e 2071     		strb	r0, [r4, #4]
  20:Core/Src/DT.c **** 	DataToSend[_cnt++] = BYTE1(a_1);
  70              		.loc 1 20 2 is_stmt 1 view .LVU14
  71              	.LVL7:
  72              		.loc 1 20 23 is_stmt 0 view .LVU15
  73 0020 C0F30720 		ubfx	r0, r0, #8, #8
  74              	.LVL8:
  75              		.loc 1 20 21 view .LVU16
  76 0024 6071     		strb	r0, [r4, #5]
  21:Core/Src/DT.c **** 	
  22:Core/Src/DT.c **** 	DataToSend[_cnt++] = BYTE0(a_2);
  77              		.loc 1 22 2 is_stmt 1 view .LVU17
  78              	.LVL9:
  79              		.loc 1 22 21 is_stmt 0 view .LVU18
  80 0026 A171     		strb	r1, [r4, #6]
  23:Core/Src/DT.c **** 	DataToSend[_cnt++] = BYTE1(a_2);
  81              		.loc 1 23 2 is_stmt 1 view .LVU19
  82              	.LVL10:
  83              		.loc 1 23 23 is_stmt 0 view .LVU20
  84 0028 C1F30721 		ubfx	r1, r1, #8, #8
  85              	.LVL11:
  86              		.loc 1 23 21 view .LVU21
  87 002c E171     		strb	r1, [r4, #7]
  24:Core/Src/DT.c **** 	
  25:Core/Src/DT.c **** 	DataToSend[_cnt++] = BYTE0(a_3);
  88              		.loc 1 25 2 is_stmt 1 view .LVU22
  89              	.LVL12:
  90              		.loc 1 25 21 is_stmt 0 view .LVU23
ARM GAS  C:\Users\Mr.Zhu\AppData\Local\Temp\ccZHI58l.s 			page 3


  91 002e 84F808C0 		strb	ip, [r4, #8]
  26:Core/Src/DT.c **** 	DataToSend[_cnt++] = BYTE1(a_3);
  92              		.loc 1 26 2 is_stmt 1 view .LVU24
  93              	.LVL13:
  94              		.loc 1 26 23 is_stmt 0 view .LVU25
  95 0032 CCF3072C 		ubfx	ip, ip, #8, #8
  96              		.loc 1 26 21 view .LVU26
  97 0036 84F809C0 		strb	ip, [r4, #9]
  27:Core/Src/DT.c **** 	
  28:Core/Src/DT.c **** 	DataToSend[_cnt++] = BYTE0(a_4);
  98              		.loc 1 28 2 is_stmt 1 view .LVU27
  99              	.LVL14:
 100              		.loc 1 28 21 is_stmt 0 view .LVU28
 101 003a A372     		strb	r3, [r4, #10]
  29:Core/Src/DT.c **** 	DataToSend[_cnt++] = BYTE1(a_4);
 102              		.loc 1 29 2 is_stmt 1 view .LVU29
 103              	.LVL15:
 104              		.loc 1 29 23 is_stmt 0 view .LVU30
 105 003c C3F30723 		ubfx	r3, r3, #8, #8
 106              	.LVL16:
 107              		.loc 1 29 21 view .LVU31
 108 0040 E372     		strb	r3, [r4, #11]
  30:Core/Src/DT.c **** 	
  31:Core/Src/DT.c **** 	DataToSend[_cnt++] = BYTE0(a_5);
 109              		.loc 1 31 2 is_stmt 1 view .LVU32
 110              	.LVL17:
 111              		.loc 1 31 21 is_stmt 0 view .LVU33
 112 0042 84F80CE0 		strb	lr, [r4, #12]
  32:Core/Src/DT.c **** 	DataToSend[_cnt++] = BYTE1(a_5);
 113              		.loc 1 32 2 is_stmt 1 view .LVU34
 114              	.LVL18:
 115              		.loc 1 32 23 is_stmt 0 view .LVU35
 116 0046 CEF3072E 		ubfx	lr, lr, #8, #8
 117              		.loc 1 32 21 view .LVU36
 118 004a 84F80DE0 		strb	lr, [r4, #13]
  33:Core/Src/DT.c **** 	
  34:Core/Src/DT.c **** 	DataToSend[_cnt++] = BYTE0(a_6);
 119              		.loc 1 34 2 is_stmt 1 view .LVU37
 120              	.LVL19:
 121              		.loc 1 34 21 is_stmt 0 view .LVU38
 122 004e A573     		strb	r5, [r4, #14]
  35:Core/Src/DT.c **** 	DataToSend[_cnt++] = BYTE1(a_6);
 123              		.loc 1 35 2 is_stmt 1 view .LVU39
 124              	.LVL20:
 125              		.loc 1 35 23 is_stmt 0 view .LVU40
 126 0050 C5F30723 		ubfx	r3, r5, #8, #8
 127              		.loc 1 35 21 view .LVU41
 128 0054 E373     		strb	r3, [r4, #15]
  36:Core/Src/DT.c **** 
  37:Core/Src/DT.c **** 	DataToSend[3] = _cnt-4;
 129              		.loc 1 37 2 is_stmt 1 view .LVU42
 130              		.loc 1 37 16 is_stmt 0 view .LVU43
 131 0056 0C23     		movs	r3, #12
 132 0058 E370     		strb	r3, [r4, #3]
  38:Core/Src/DT.c **** 	
  39:Core/Src/DT.c **** 	uint8_t sc = 0;
 133              		.loc 1 39 2 is_stmt 1 view .LVU44
ARM GAS  C:\Users\Mr.Zhu\AppData\Local\Temp\ccZHI58l.s 			page 4


 134              	.LVL21:
  40:Core/Src/DT.c **** 	uint8_t ac = 0;
 135              		.loc 1 40 2 view .LVU45
  41:Core/Src/DT.c **** 	for(uint8_t i=0; i<DataToSend[3]+4; i++) {
 136              		.loc 1 41 2 view .LVU46
 137              	.LBB2:
 138              		.loc 1 41 6 view .LVU47
 139              		.loc 1 41 14 is_stmt 0 view .LVU48
 140 005a 1346     		mov	r3, r2
 141              	.LBE2:
  40:Core/Src/DT.c **** 	uint8_t ac = 0;
 142              		.loc 1 40 10 view .LVU49
 143 005c 1146     		mov	r1, r2
 144              	.LBB3:
 145              		.loc 1 41 2 view .LVU50
 146 005e 07E0     		b	.L2
 147              	.LVL22:
 148              	.L3:
  42:Core/Src/DT.c **** 		sc += DataToSend[i];
 149              		.loc 1 42 3 is_stmt 1 discriminator 3 view .LVU51
 150              		.loc 1 42 19 is_stmt 0 discriminator 3 view .LVU52
 151 0060 0648     		ldr	r0, .L5
 152 0062 C05C     		ldrb	r0, [r0, r3]	@ zero_extendqisi2
 153              		.loc 1 42 6 discriminator 3 view .LVU53
 154 0064 0244     		add	r2, r2, r0
 155              	.LVL23:
 156              		.loc 1 42 6 discriminator 3 view .LVU54
 157 0066 D2B2     		uxtb	r2, r2
 158              	.LVL24:
  43:Core/Src/DT.c **** 		ac += sc;
 159              		.loc 1 43 3 is_stmt 1 discriminator 3 view .LVU55
 160              		.loc 1 43 6 is_stmt 0 discriminator 3 view .LVU56
 161 0068 1144     		add	r1, r1, r2
 162              	.LVL25:
 163              		.loc 1 43 6 discriminator 3 view .LVU57
 164 006a C9B2     		uxtb	r1, r1
 165              	.LVL26:
  41:Core/Src/DT.c **** 	for(uint8_t i=0; i<DataToSend[3]+4; i++) {
 166              		.loc 1 41 38 is_stmt 1 discriminator 3 view .LVU58
  41:Core/Src/DT.c **** 	for(uint8_t i=0; i<DataToSend[3]+4; i++) {
 167              		.loc 1 41 39 is_stmt 0 discriminator 3 view .LVU59
 168 006c 0133     		adds	r3, r3, #1
 169              	.LVL27:
  41:Core/Src/DT.c **** 	for(uint8_t i=0; i<DataToSend[3]+4; i++) {
 170              		.loc 1 41 39 discriminator 3 view .LVU60
 171 006e DBB2     		uxtb	r3, r3
 172              	.LVL28:
 173              	.L2:
  41:Core/Src/DT.c **** 	for(uint8_t i=0; i<DataToSend[3]+4; i++) {
 174              		.loc 1 41 19 is_stmt 1 discriminator 1 view .LVU61
  41:Core/Src/DT.c **** 	for(uint8_t i=0; i<DataToSend[3]+4; i++) {
 175              		.loc 1 41 2 is_stmt 0 discriminator 1 view .LVU62
 176 0070 0F2B     		cmp	r3, #15
 177 0072 F5DD     		ble	.L3
 178              	.LBE3:
  44:Core/Src/DT.c **** 	}
  45:Core/Src/DT.c **** 	
ARM GAS  C:\Users\Mr.Zhu\AppData\Local\Temp\ccZHI58l.s 			page 5


  46:Core/Src/DT.c **** 	DataToSend[_cnt++] = sc;
 179              		.loc 1 46 2 is_stmt 1 view .LVU63
 180              	.LVL29:
 181              		.loc 1 46 21 is_stmt 0 view .LVU64
 182 0074 014B     		ldr	r3, .L5
 183              	.LVL30:
 184              		.loc 1 46 21 view .LVU65
 185 0076 1A74     		strb	r2, [r3, #16]
  47:Core/Src/DT.c **** 	DataToSend[_cnt++] = ac;
 186              		.loc 1 47 2 is_stmt 1 view .LVU66
 187              	.LVL31:
 188              		.loc 1 47 21 is_stmt 0 view .LVU67
 189 0078 5974     		strb	r1, [r3, #17]
  48:Core/Src/DT.c **** 
  49:Core/Src/DT.c **** 	// Uart1_Put_Buf(DataToSend,_cnt);
  50:Core/Src/DT.c **** }
 190              		.loc 1 50 1 view .LVU68
 191 007a 30BD     		pop	{r4, r5, pc}
 192              	.LVL32:
 193              	.L6:
 194              		.loc 1 50 1 view .LVU69
 195              		.align	2
 196              	.L5:
 197 007c 00000000 		.word	.LANCHOR0
 198              		.cfi_endproc
 199              	.LFE68:
 201              		.section	.text.DT_Send01,"ax",%progbits
 202              		.align	1
 203              		.global	DT_Send01
 204              		.syntax unified
 205              		.thumb
 206              		.thumb_func
 207              		.fpu softvfp
 209              	DT_Send01:
 210              	.LVL33:
 211              	.LFB69:
  51:Core/Src/DT.c **** 
  52:Core/Src/DT.c **** //mpu6050
  53:Core/Src/DT.c **** 
  54:Core/Src/DT.c **** void DT_Send01(int16_t acc_x, int16_t acc_y,int16_t acc_z,int16_t gyrox,int16_t gyroy,int16_t gyroz
 212              		.loc 1 54 115 is_stmt 1 view -0
 213              		.cfi_startproc
 214              		@ args = 12, pretend = 0, frame = 0
 215              		@ frame_needed = 0, uses_anonymous_args = 0
 216              		.loc 1 54 115 is_stmt 0 view .LVU71
 217 0000 30B5     		push	{r4, r5, lr}
 218              	.LCFI1:
 219              		.cfi_def_cfa_offset 12
 220              		.cfi_offset 4, -12
 221              		.cfi_offset 5, -8
 222              		.cfi_offset 14, -4
 223 0002 9446     		mov	ip, r2
 224 0004 BDF90CE0 		ldrsh	lr, [sp, #12]
 225 0008 BDF91050 		ldrsh	r5, [sp, #16]
  55:Core/Src/DT.c **** 	uint8_t _cnt = 0;
 226              		.loc 1 55 2 is_stmt 1 view .LVU72
 227              	.LVL34:
ARM GAS  C:\Users\Mr.Zhu\AppData\Local\Temp\ccZHI58l.s 			page 6


  56:Core/Src/DT.c **** 	
  57:Core/Src/DT.c **** 	DataToSend[_cnt++] = 0XAA;
 228              		.loc 1 57 2 view .LVU73
 229              		.loc 1 57 21 is_stmt 0 view .LVU74
 230 000c 1D4C     		ldr	r4, .L11
 231 000e AA22     		movs	r2, #170
 232              	.LVL35:
 233              		.loc 1 57 21 view .LVU75
 234 0010 2270     		strb	r2, [r4]
  58:Core/Src/DT.c **** 	DataToSend[_cnt++] = 0XFF;
 235              		.loc 1 58 2 is_stmt 1 view .LVU76
 236              	.LVL36:
 237              		.loc 1 58 21 is_stmt 0 view .LVU77
 238 0012 FF22     		movs	r2, #255
 239 0014 6270     		strb	r2, [r4, #1]
  59:Core/Src/DT.c **** 	DataToSend[_cnt++] = 0X01;
 240              		.loc 1 59 2 is_stmt 1 view .LVU78
 241              	.LVL37:
 242              		.loc 1 59 21 is_stmt 0 view .LVU79
 243 0016 0122     		movs	r2, #1
 244 0018 A270     		strb	r2, [r4, #2]
  60:Core/Src/DT.c **** 	DataToSend[_cnt++] = 0;
 245              		.loc 1 60 2 is_stmt 1 view .LVU80
 246              	.LVL38:
 247              		.loc 1 60 21 is_stmt 0 view .LVU81
 248 001a 0022     		movs	r2, #0
 249 001c E270     		strb	r2, [r4, #3]
  61:Core/Src/DT.c **** 	
  62:Core/Src/DT.c **** 	DataToSend[_cnt++] = BYTE0(acc_x);
 250              		.loc 1 62 2 is_stmt 1 view .LVU82
 251              	.LVL39:
 252              		.loc 1 62 21 is_stmt 0 view .LVU83
 253 001e 2071     		strb	r0, [r4, #4]
  63:Core/Src/DT.c **** 	DataToSend[_cnt++] = BYTE1(acc_x);
 254              		.loc 1 63 2 is_stmt 1 view .LVU84
 255              	.LVL40:
 256              		.loc 1 63 23 is_stmt 0 view .LVU85
 257 0020 C0F30720 		ubfx	r0, r0, #8, #8
 258              	.LVL41:
 259              		.loc 1 63 21 view .LVU86
 260 0024 6071     		strb	r0, [r4, #5]
  64:Core/Src/DT.c **** 	
  65:Core/Src/DT.c **** 	DataToSend[_cnt++] = BYTE0(acc_y);
 261              		.loc 1 65 2 is_stmt 1 view .LVU87
 262              	.LVL42:
 263              		.loc 1 65 21 is_stmt 0 view .LVU88
 264 0026 A171     		strb	r1, [r4, #6]
  66:Core/Src/DT.c **** 	DataToSend[_cnt++] = BYTE1(acc_y);
 265              		.loc 1 66 2 is_stmt 1 view .LVU89
 266              	.LVL43:
 267              		.loc 1 66 23 is_stmt 0 view .LVU90
 268 0028 C1F30721 		ubfx	r1, r1, #8, #8
 269              	.LVL44:
 270              		.loc 1 66 21 view .LVU91
 271 002c E171     		strb	r1, [r4, #7]
  67:Core/Src/DT.c **** 	
  68:Core/Src/DT.c **** 	DataToSend[_cnt++] = BYTE0(acc_z);
ARM GAS  C:\Users\Mr.Zhu\AppData\Local\Temp\ccZHI58l.s 			page 7


 272              		.loc 1 68 2 is_stmt 1 view .LVU92
 273              	.LVL45:
 274              		.loc 1 68 21 is_stmt 0 view .LVU93
 275 002e 84F808C0 		strb	ip, [r4, #8]
  69:Core/Src/DT.c **** 	DataToSend[_cnt++] = BYTE1(acc_z);
 276              		.loc 1 69 2 is_stmt 1 view .LVU94
 277              	.LVL46:
 278              		.loc 1 69 23 is_stmt 0 view .LVU95
 279 0032 CCF3072C 		ubfx	ip, ip, #8, #8
 280              		.loc 1 69 21 view .LVU96
 281 0036 84F809C0 		strb	ip, [r4, #9]
  70:Core/Src/DT.c **** 	
  71:Core/Src/DT.c **** 	DataToSend[_cnt++] = BYTE0(gyrox);
 282              		.loc 1 71 2 is_stmt 1 view .LVU97
 283              	.LVL47:
 284              		.loc 1 71 21 is_stmt 0 view .LVU98
 285 003a A372     		strb	r3, [r4, #10]
  72:Core/Src/DT.c **** 	DataToSend[_cnt++] = BYTE1(gyrox);
 286              		.loc 1 72 2 is_stmt 1 view .LVU99
 287              	.LVL48:
 288              		.loc 1 72 23 is_stmt 0 view .LVU100
 289 003c C3F30723 		ubfx	r3, r3, #8, #8
 290              	.LVL49:
 291              		.loc 1 72 21 view .LVU101
 292 0040 E372     		strb	r3, [r4, #11]
  73:Core/Src/DT.c **** 	
  74:Core/Src/DT.c **** 	DataToSend[_cnt++] = BYTE0(gyroy);
 293              		.loc 1 74 2 is_stmt 1 view .LVU102
 294              	.LVL50:
 295              		.loc 1 74 21 is_stmt 0 view .LVU103
 296 0042 84F80CE0 		strb	lr, [r4, #12]
  75:Core/Src/DT.c **** 	DataToSend[_cnt++] = BYTE1(gyroy);
 297              		.loc 1 75 2 is_stmt 1 view .LVU104
 298              	.LVL51:
 299              		.loc 1 75 23 is_stmt 0 view .LVU105
 300 0046 CEF3072E 		ubfx	lr, lr, #8, #8
 301              		.loc 1 75 21 view .LVU106
 302 004a 84F80DE0 		strb	lr, [r4, #13]
  76:Core/Src/DT.c **** 	
  77:Core/Src/DT.c **** 	DataToSend[_cnt++] = BYTE0(gyroz);
 303              		.loc 1 77 2 is_stmt 1 view .LVU107
 304              	.LVL52:
 305              		.loc 1 77 21 is_stmt 0 view .LVU108
 306 004e A573     		strb	r5, [r4, #14]
  78:Core/Src/DT.c **** 	DataToSend[_cnt++] = BYTE1(gyroz);
 307              		.loc 1 78 2 is_stmt 1 view .LVU109
 308              	.LVL53:
 309              		.loc 1 78 23 is_stmt 0 view .LVU110
 310 0050 C5F30723 		ubfx	r3, r5, #8, #8
 311              		.loc 1 78 21 view .LVU111
 312 0054 E373     		strb	r3, [r4, #15]
  79:Core/Src/DT.c **** 	
  80:Core/Src/DT.c **** 	DataToSend[_cnt++] = sta;
 313              		.loc 1 80 2 is_stmt 1 view .LVU112
 314              	.LVL54:
 315              		.loc 1 80 21 is_stmt 0 view .LVU113
 316 0056 9DF81430 		ldrb	r3, [sp, #20]	@ zero_extendqisi2
ARM GAS  C:\Users\Mr.Zhu\AppData\Local\Temp\ccZHI58l.s 			page 8


 317 005a 2374     		strb	r3, [r4, #16]
  81:Core/Src/DT.c **** 
  82:Core/Src/DT.c **** 	DataToSend[3] = _cnt-4;
 318              		.loc 1 82 2 is_stmt 1 view .LVU114
 319              		.loc 1 82 16 is_stmt 0 view .LVU115
 320 005c 0D23     		movs	r3, #13
 321 005e E370     		strb	r3, [r4, #3]
  83:Core/Src/DT.c **** 	
  84:Core/Src/DT.c **** 	uint8_t sc = 0;
 322              		.loc 1 84 2 is_stmt 1 view .LVU116
 323              	.LVL55:
  85:Core/Src/DT.c **** 	uint8_t ac = 0;
 324              		.loc 1 85 2 view .LVU117
  86:Core/Src/DT.c **** 	for(uint8_t i=0; i<DataToSend[3]+4; i++) {
 325              		.loc 1 86 2 view .LVU118
 326              	.LBB4:
 327              		.loc 1 86 6 view .LVU119
 328              		.loc 1 86 14 is_stmt 0 view .LVU120
 329 0060 1346     		mov	r3, r2
 330              	.LBE4:
  85:Core/Src/DT.c **** 	uint8_t ac = 0;
 331              		.loc 1 85 10 view .LVU121
 332 0062 1146     		mov	r1, r2
 333              	.LBB5:
 334              		.loc 1 86 2 view .LVU122
 335 0064 07E0     		b	.L8
 336              	.LVL56:
 337              	.L9:
  87:Core/Src/DT.c **** 		sc += DataToSend[i];
 338              		.loc 1 87 3 is_stmt 1 discriminator 3 view .LVU123
 339              		.loc 1 87 19 is_stmt 0 discriminator 3 view .LVU124
 340 0066 0748     		ldr	r0, .L11
 341 0068 C05C     		ldrb	r0, [r0, r3]	@ zero_extendqisi2
 342              		.loc 1 87 6 discriminator 3 view .LVU125
 343 006a 0244     		add	r2, r2, r0
 344              	.LVL57:
 345              		.loc 1 87 6 discriminator 3 view .LVU126
 346 006c D2B2     		uxtb	r2, r2
 347              	.LVL58:
  88:Core/Src/DT.c **** 		ac += sc;
 348              		.loc 1 88 3 is_stmt 1 discriminator 3 view .LVU127
 349              		.loc 1 88 6 is_stmt 0 discriminator 3 view .LVU128
 350 006e 1144     		add	r1, r1, r2
 351              	.LVL59:
 352              		.loc 1 88 6 discriminator 3 view .LVU129
 353 0070 C9B2     		uxtb	r1, r1
 354              	.LVL60:
  86:Core/Src/DT.c **** 	for(uint8_t i=0; i<DataToSend[3]+4; i++) {
 355              		.loc 1 86 38 is_stmt 1 discriminator 3 view .LVU130
  86:Core/Src/DT.c **** 	for(uint8_t i=0; i<DataToSend[3]+4; i++) {
 356              		.loc 1 86 39 is_stmt 0 discriminator 3 view .LVU131
 357 0072 0133     		adds	r3, r3, #1
 358              	.LVL61:
  86:Core/Src/DT.c **** 	for(uint8_t i=0; i<DataToSend[3]+4; i++) {
 359              		.loc 1 86 39 discriminator 3 view .LVU132
 360 0074 DBB2     		uxtb	r3, r3
 361              	.LVL62:
ARM GAS  C:\Users\Mr.Zhu\AppData\Local\Temp\ccZHI58l.s 			page 9


 362              	.L8:
  86:Core/Src/DT.c **** 	for(uint8_t i=0; i<DataToSend[3]+4; i++) {
 363              		.loc 1 86 19 is_stmt 1 discriminator 1 view .LVU133
  86:Core/Src/DT.c **** 	for(uint8_t i=0; i<DataToSend[3]+4; i++) {
 364              		.loc 1 86 2 is_stmt 0 discriminator 1 view .LVU134
 365 0076 102B     		cmp	r3, #16
 366 0078 F5DD     		ble	.L9
 367              	.LBE5:
  89:Core/Src/DT.c **** 	}
  90:Core/Src/DT.c **** 	
  91:Core/Src/DT.c **** 	DataToSend[_cnt++] = sc;
 368              		.loc 1 91 2 is_stmt 1 view .LVU135
 369              	.LVL63:
 370              		.loc 1 91 21 is_stmt 0 view .LVU136
 371 007a 024B     		ldr	r3, .L11
 372              	.LVL64:
 373              		.loc 1 91 21 view .LVU137
 374 007c 5A74     		strb	r2, [r3, #17]
  92:Core/Src/DT.c **** 	DataToSend[_cnt++] = ac;
 375              		.loc 1 92 2 is_stmt 1 view .LVU138
 376              	.LVL65:
 377              		.loc 1 92 21 is_stmt 0 view .LVU139
 378 007e 9974     		strb	r1, [r3, #18]
  93:Core/Src/DT.c **** 
  94:Core/Src/DT.c **** 	// Uart1_Put_Buf(DataToSend,_cnt);
  95:Core/Src/DT.c **** }
 379              		.loc 1 95 1 view .LVU140
 380 0080 30BD     		pop	{r4, r5, pc}
 381              	.LVL66:
 382              	.L12:
 383              		.loc 1 95 1 view .LVU141
 384 0082 00BF     		.align	2
 385              	.L11:
 386 0084 00000000 		.word	.LANCHOR0
 387              		.cfi_endproc
 388              	.LFE69:
 390              		.section	.text.DT_Send03,"ax",%progbits
 391              		.align	1
 392              		.global	DT_Send03
 393              		.syntax unified
 394              		.thumb
 395              		.thumb_func
 396              		.fpu softvfp
 398              	DT_Send03:
 399              	.LVL67:
 400              	.LFB70:
  96:Core/Src/DT.c **** 
  97:Core/Src/DT.c **** 
  98:Core/Src/DT.c **** void DT_Send03(int16_t rol, int16_t pit,int16_t yaw, uint8_t sta) {
 401              		.loc 1 98 67 is_stmt 1 view -0
 402              		.cfi_startproc
 403              		@ args = 0, pretend = 0, frame = 0
 404              		@ frame_needed = 0, uses_anonymous_args = 0
 405              		.loc 1 98 67 is_stmt 0 view .LVU143
 406 0000 08B5     		push	{r3, lr}
 407              	.LCFI2:
 408              		.cfi_def_cfa_offset 8
ARM GAS  C:\Users\Mr.Zhu\AppData\Local\Temp\ccZHI58l.s 			page 10


 409              		.cfi_offset 3, -8
 410              		.cfi_offset 14, -4
  99:Core/Src/DT.c **** 	rol=rol*100;
 411              		.loc 1 99 2 is_stmt 1 view .LVU144
 412              		.loc 1 99 9 is_stmt 0 view .LVU145
 413 0002 00EB8000 		add	r0, r0, r0, lsl #2
 414              	.LVL68:
 415              		.loc 1 99 9 view .LVU146
 416 0006 00EB8000 		add	r0, r0, r0, lsl #2
 417 000a 4FEA800E 		lsl	lr, r0, #2
 418              	.LVL69:
 100:Core/Src/DT.c **** 	pit=pit*100;
 419              		.loc 1 100 2 is_stmt 1 view .LVU147
 420              		.loc 1 100 9 is_stmt 0 view .LVU148
 421 000e 01EB8101 		add	r1, r1, r1, lsl #2
 422              	.LVL70:
 423              		.loc 1 100 9 view .LVU149
 424 0012 01EB8101 		add	r1, r1, r1, lsl #2
 425 0016 4FEA810C 		lsl	ip, r1, #2
 426              	.LVL71:
 101:Core/Src/DT.c **** 	yaw=yaw*100;
 427              		.loc 1 101 2 is_stmt 1 view .LVU150
 428              		.loc 1 101 9 is_stmt 0 view .LVU151
 429 001a 02EB8202 		add	r2, r2, r2, lsl #2
 430              	.LVL72:
 431              		.loc 1 101 9 view .LVU152
 432 001e 02EB8202 		add	r2, r2, r2, lsl #2
 433 0022 9000     		lsls	r0, r2, #2
 434              	.LVL73:
 102:Core/Src/DT.c **** 	uint8_t _cnt = 0;
 435              		.loc 1 102 2 is_stmt 1 view .LVU153
 103:Core/Src/DT.c **** 	
 104:Core/Src/DT.c **** 	DataToSend[_cnt++] = 0XAA;
 436              		.loc 1 104 2 view .LVU154
 437              		.loc 1 104 21 is_stmt 0 view .LVU155
 438 0024 1849     		ldr	r1, .L17
 439 0026 AA22     		movs	r2, #170
 440 0028 0A70     		strb	r2, [r1]
 105:Core/Src/DT.c **** 	DataToSend[_cnt++] = 0XFF;
 441              		.loc 1 105 2 is_stmt 1 view .LVU156
 442              	.LVL74:
 443              		.loc 1 105 21 is_stmt 0 view .LVU157
 444 002a FF22     		movs	r2, #255
 445 002c 4A70     		strb	r2, [r1, #1]
 106:Core/Src/DT.c **** 	DataToSend[_cnt++] = 0X03;
 446              		.loc 1 106 2 is_stmt 1 view .LVU158
 447              	.LVL75:
 448              		.loc 1 106 21 is_stmt 0 view .LVU159
 449 002e 0322     		movs	r2, #3
 450 0030 8A70     		strb	r2, [r1, #2]
 107:Core/Src/DT.c **** 	DataToSend[_cnt++] = 0;
 451              		.loc 1 107 2 is_stmt 1 view .LVU160
 452              	.LVL76:
 453              		.loc 1 107 21 is_stmt 0 view .LVU161
 454 0032 0022     		movs	r2, #0
 455 0034 CA70     		strb	r2, [r1, #3]
 108:Core/Src/DT.c **** 	
ARM GAS  C:\Users\Mr.Zhu\AppData\Local\Temp\ccZHI58l.s 			page 11


 109:Core/Src/DT.c **** 	DataToSend[_cnt++] = BYTE0(rol);
 456              		.loc 1 109 2 is_stmt 1 view .LVU162
 457              	.LVL77:
 458              		.loc 1 109 21 is_stmt 0 view .LVU163
 459 0036 81F804E0 		strb	lr, [r1, #4]
 110:Core/Src/DT.c **** 	DataToSend[_cnt++] = BYTE1(rol);
 460              		.loc 1 110 2 is_stmt 1 view .LVU164
 461              	.LVL78:
 462              		.loc 1 110 23 is_stmt 0 view .LVU165
 463 003a CEF3072E 		ubfx	lr, lr, #8, #8
 464              	.LVL79:
 465              		.loc 1 110 21 view .LVU166
 466 003e 81F805E0 		strb	lr, [r1, #5]
 111:Core/Src/DT.c **** 	
 112:Core/Src/DT.c **** 	DataToSend[_cnt++] = BYTE0(pit);
 467              		.loc 1 112 2 is_stmt 1 view .LVU167
 468              	.LVL80:
 469              		.loc 1 112 21 is_stmt 0 view .LVU168
 470 0042 81F806C0 		strb	ip, [r1, #6]
 113:Core/Src/DT.c **** 	DataToSend[_cnt++] = BYTE1(pit);
 471              		.loc 1 113 2 is_stmt 1 view .LVU169
 472              	.LVL81:
 473              		.loc 1 113 23 is_stmt 0 view .LVU170
 474 0046 CCF3072C 		ubfx	ip, ip, #8, #8
 475              	.LVL82:
 476              		.loc 1 113 21 view .LVU171
 477 004a 81F807C0 		strb	ip, [r1, #7]
 114:Core/Src/DT.c **** 	
 115:Core/Src/DT.c **** 	DataToSend[_cnt++] = BYTE0(yaw);
 478              		.loc 1 115 2 is_stmt 1 view .LVU172
 479              	.LVL83:
 480              		.loc 1 115 21 is_stmt 0 view .LVU173
 481 004e 0872     		strb	r0, [r1, #8]
 116:Core/Src/DT.c **** 	DataToSend[_cnt++] = BYTE1(yaw);
 482              		.loc 1 116 2 is_stmt 1 view .LVU174
 483              	.LVL84:
 484              		.loc 1 116 23 is_stmt 0 view .LVU175
 485 0050 C0F30720 		ubfx	r0, r0, #8, #8
 486              	.LVL85:
 487              		.loc 1 116 21 view .LVU176
 488 0054 4872     		strb	r0, [r1, #9]
 117:Core/Src/DT.c **** 	
 118:Core/Src/DT.c **** 	DataToSend[_cnt++] = sta;
 489              		.loc 1 118 2 is_stmt 1 view .LVU177
 490              	.LVL86:
 491              		.loc 1 118 21 is_stmt 0 view .LVU178
 492 0056 8B72     		strb	r3, [r1, #10]
 119:Core/Src/DT.c **** 
 120:Core/Src/DT.c **** 	DataToSend[3] = _cnt-4;
 493              		.loc 1 120 2 is_stmt 1 view .LVU179
 494              		.loc 1 120 16 is_stmt 0 view .LVU180
 495 0058 0723     		movs	r3, #7
 496              	.LVL87:
 497              		.loc 1 120 16 view .LVU181
 498 005a CB70     		strb	r3, [r1, #3]
 121:Core/Src/DT.c **** 	
 122:Core/Src/DT.c **** 	uint8_t sc = 0;
ARM GAS  C:\Users\Mr.Zhu\AppData\Local\Temp\ccZHI58l.s 			page 12


 499              		.loc 1 122 2 is_stmt 1 view .LVU182
 500              	.LVL88:
 123:Core/Src/DT.c **** 	uint8_t ac = 0;
 501              		.loc 1 123 2 view .LVU183
 124:Core/Src/DT.c **** 	for(uint8_t i=0; i<DataToSend[3]+4; i++) {
 502              		.loc 1 124 2 view .LVU184
 503              	.LBB6:
 504              		.loc 1 124 6 view .LVU185
 505              		.loc 1 124 14 is_stmt 0 view .LVU186
 506 005c 1346     		mov	r3, r2
 507              	.LBE6:
 123:Core/Src/DT.c **** 	uint8_t ac = 0;
 508              		.loc 1 123 10 view .LVU187
 509 005e 1046     		mov	r0, r2
 510              	.LBB7:
 511              		.loc 1 124 2 view .LVU188
 512 0060 07E0     		b	.L14
 513              	.LVL89:
 514              	.L15:
 125:Core/Src/DT.c **** 		sc += DataToSend[i];
 515              		.loc 1 125 3 is_stmt 1 discriminator 3 view .LVU189
 516              		.loc 1 125 19 is_stmt 0 discriminator 3 view .LVU190
 517 0062 0949     		ldr	r1, .L17
 518              		.loc 1 125 19 discriminator 3 view .LVU191
 519 0064 C95C     		ldrb	r1, [r1, r3]	@ zero_extendqisi2
 520              		.loc 1 125 6 discriminator 3 view .LVU192
 521 0066 0A44     		add	r2, r2, r1
 522              	.LVL90:
 523              		.loc 1 125 6 discriminator 3 view .LVU193
 524 0068 D2B2     		uxtb	r2, r2
 525              	.LVL91:
 126:Core/Src/DT.c **** 		ac += sc;
 526              		.loc 1 126 3 is_stmt 1 discriminator 3 view .LVU194
 527              		.loc 1 126 6 is_stmt 0 discriminator 3 view .LVU195
 528 006a 1044     		add	r0, r0, r2
 529              	.LVL92:
 530              		.loc 1 126 6 discriminator 3 view .LVU196
 531 006c C0B2     		uxtb	r0, r0
 532              	.LVL93:
 124:Core/Src/DT.c **** 	for(uint8_t i=0; i<DataToSend[3]+4; i++) {
 533              		.loc 1 124 38 is_stmt 1 discriminator 3 view .LVU197
 124:Core/Src/DT.c **** 	for(uint8_t i=0; i<DataToSend[3]+4; i++) {
 534              		.loc 1 124 39 is_stmt 0 discriminator 3 view .LVU198
 535 006e 0133     		adds	r3, r3, #1
 536              	.LVL94:
 124:Core/Src/DT.c **** 	for(uint8_t i=0; i<DataToSend[3]+4; i++) {
 537              		.loc 1 124 39 discriminator 3 view .LVU199
 538 0070 DBB2     		uxtb	r3, r3
 539              	.LVL95:
 540              	.L14:
 124:Core/Src/DT.c **** 	for(uint8_t i=0; i<DataToSend[3]+4; i++) {
 541              		.loc 1 124 19 is_stmt 1 discriminator 1 view .LVU200
 124:Core/Src/DT.c **** 	for(uint8_t i=0; i<DataToSend[3]+4; i++) {
 542              		.loc 1 124 2 is_stmt 0 discriminator 1 view .LVU201
 543 0072 0A2B     		cmp	r3, #10
 544 0074 F5DD     		ble	.L15
 545              	.LBE7:
ARM GAS  C:\Users\Mr.Zhu\AppData\Local\Temp\ccZHI58l.s 			page 13


 127:Core/Src/DT.c **** 	}
 128:Core/Src/DT.c **** 	
 129:Core/Src/DT.c **** 	DataToSend[_cnt++] = sc;
 546              		.loc 1 129 2 is_stmt 1 view .LVU202
 547              	.LVL96:
 548              		.loc 1 129 21 is_stmt 0 view .LVU203
 549 0076 0449     		ldr	r1, .L17
 550              		.loc 1 129 21 view .LVU204
 551 0078 CA72     		strb	r2, [r1, #11]
 130:Core/Src/DT.c **** 	DataToSend[_cnt++] = ac;
 552              		.loc 1 130 2 is_stmt 1 view .LVU205
 553              	.LVL97:
 554              		.loc 1 130 21 is_stmt 0 view .LVU206
 555 007a 0873     		strb	r0, [r1, #12]
 131:Core/Src/DT.c **** 
 132:Core/Src/DT.c **** 	// HAL_UART_Transmit(&huart1, (uint8_t* )&DataToSend, _cnt, 0xffff);
 133:Core/Src/DT.c **** 	HAL_UART_Transmit_IT(&huart1, &DataToSend, _cnt);
 556              		.loc 1 133 2 is_stmt 1 view .LVU207
 557 007c 0D22     		movs	r2, #13
 558              	.LVL98:
 559              		.loc 1 133 2 is_stmt 0 view .LVU208
 560 007e 0348     		ldr	r0, .L17+4
 561              	.LVL99:
 562              		.loc 1 133 2 view .LVU209
 563 0080 FFF7FEFF 		bl	HAL_UART_Transmit_IT
 564              	.LVL100:
 134:Core/Src/DT.c **** 	// Uart1_Put_Buf(DataToSend,_cnt);
 135:Core/Src/DT.c **** }
 565              		.loc 1 135 1 view .LVU210
 566 0084 08BD     		pop	{r3, pc}
 567              	.L18:
 568 0086 00BF     		.align	2
 569              	.L17:
 570 0088 00000000 		.word	.LANCHOR0
 571 008c 00000000 		.word	huart1
 572              		.cfi_endproc
 573              	.LFE70:
 575              		.global	DataToSend
 576              		.section	.bss.DataToSend,"aw",%nobits
 577              		.align	2
 578              		.set	.LANCHOR0,. + 0
 581              	DataToSend:
 582 0000 00000000 		.space	100
 582      00000000 
 582      00000000 
 582      00000000 
 582      00000000 
 583              		.text
 584              	.Letext0:
 585              		.file 2 "e:\\clion\\gcc-arm-none-eabi\\10 2020-q4-major\\arm-none-eabi\\include\\machine\\_default
 586              		.file 3 "e:\\clion\\gcc-arm-none-eabi\\10 2020-q4-major\\arm-none-eabi\\include\\sys\\_stdint.h"
 587              		.file 4 "Drivers/CMSIS/Device/ST/STM32F1xx/Include/stm32f103xb.h"
 588              		.file 5 "Drivers/STM32F1xx_HAL_Driver/Inc/stm32f1xx_hal_def.h"
 589              		.file 6 "Drivers/STM32F1xx_HAL_Driver/Inc/stm32f1xx_hal_dma.h"
 590              		.file 7 "Drivers/STM32F1xx_HAL_Driver/Inc/stm32f1xx_hal_uart.h"
 591              		.file 8 "Core/Inc/usart.h"
ARM GAS  C:\Users\Mr.Zhu\AppData\Local\Temp\ccZHI58l.s 			page 14

