ARM GAS  C:\Users\Mr.Zhu\AppData\Local\Temp\ccTVJEOX.s 			page 1


   1              		.cpu cortex-m3
   2              		.eabi_attribute 20, 1
   3              		.eabi_attribute 21, 1
   4              		.eabi_attribute 23, 3
   5              		.eabi_attribute 24, 1
   6              		.eabi_attribute 25, 1
   7              		.eabi_attribute 26, 1
   8              		.eabi_attribute 30, 1
   9              		.eabi_attribute 34, 1
  10              		.eabi_attribute 18, 4
  11              		.file	"filter.c"
  12              		.text
  13              	.Ltext0:
  14              		.cfi_sections	.debug_frame
  15              		.global	__aeabi_fsub
  16              		.global	__aeabi_fmul
  17              		.global	__aeabi_fadd
  18              		.global	__aeabi_i2f
  19              		.global	__aeabi_fdiv
  20              		.section	.text.Kalman_Filter_X,"ax",%progbits
  21              		.align	1
  22              		.global	Kalman_Filter_X
  23              		.arch armv7-m
  24              		.syntax unified
  25              		.thumb
  26              		.thumb_func
  27              		.fpu softvfp
  29              	Kalman_Filter_X:
  30              	.LVL0:
  31              	.LFB68:
  32              		.file 1 "Core/Src/filter.c"
   1:Core/Src/filter.c **** #include "filter.h"
   2:Core/Src/filter.c **** #include <math.h>
   3:Core/Src/filter.c **** #include "mpu6050.h"
   4:Core/Src/filter.c **** #include "DT.h"
   5:Core/Src/filter.c **** int16_t Dog_ROL,Dog_PIT;
   6:Core/Src/filter.c **** 
   7:Core/Src/filter.c **** float K1_X =0.02; 
   8:Core/Src/filter.c **** float angle_X, angle_dot_X; 	
   9:Core/Src/filter.c **** float Q_angle_X=0.001;// 过程噪声的协方差
  10:Core/Src/filter.c **** float Q_gyro_X=0.003;//0.03 过程噪声的协方差 过程噪声的协方差为一个一行两列矩阵
  11:Core/Src/filter.c **** float R_angle_X=0.5;// 测量噪声的协方差 既测量偏差
  12:Core/Src/filter.c **** float dt_X=0.005;//                 
  13:Core/Src/filter.c **** char  C_0_X = 1;
  14:Core/Src/filter.c **** float Q_bias_X, Angle_err_X;
  15:Core/Src/filter.c **** float PCt_0_X, PCt_1_X, E_X;
  16:Core/Src/filter.c **** float K_0_X, K_1_X, t_0_X, t_1_X;
  17:Core/Src/filter.c **** float Pdot_X[4] ={0,0,0,0};
  18:Core/Src/filter.c **** float PP_X[2][2] = { { 1, 0 },{ 0, 1 } };
  19:Core/Src/filter.c **** 
  20:Core/Src/filter.c **** float K1_Y =0.02; 
  21:Core/Src/filter.c **** float angle_Y, angle_dot_Y; 	
  22:Core/Src/filter.c **** float Q_angle_Y=0.001;// 过程噪声的协方差
  23:Core/Src/filter.c **** float Q_gyro_Y=0.003;//0.03 过程噪声的协方差 过程噪声的协方差为一个一行两列矩阵
  24:Core/Src/filter.c **** float R_angle_Y=0.5;// 测量噪声的协方差 既测量偏差
  25:Core/Src/filter.c **** float dt_Y=0.005;//                 
  26:Core/Src/filter.c **** char  C_0_Y = 1;
ARM GAS  C:\Users\Mr.Zhu\AppData\Local\Temp\ccTVJEOX.s 			page 2


  27:Core/Src/filter.c **** float Q_bias_Y, Angle_err_Y;
  28:Core/Src/filter.c **** float PCt_0_Y, PCt_1_Y, E_Y;
  29:Core/Src/filter.c **** float K_0_Y, K_1_Y, t_0_Y, t_1_Y;
  30:Core/Src/filter.c **** float Pdot_Y[4] ={0,0,0,0};
  31:Core/Src/filter.c **** float PP_Y[2][2] = { { 1, 0 },{ 0, 1 } };
  32:Core/Src/filter.c **** 	
  33:Core/Src/filter.c **** float K1_Z =0.02; 
  34:Core/Src/filter.c **** float angle_Z, angle_dot_Z; 	
  35:Core/Src/filter.c **** float Q_angle_Z=0.001;// 过程噪声的协方差
  36:Core/Src/filter.c **** float Q_gyro_Z=0.003;//0.03 过程噪声的协方差 过程噪声的协方差为一个一行两列矩阵
  37:Core/Src/filter.c **** float R_angle_Z=0.5;// 测量噪声的协方差 既测量偏差
  38:Core/Src/filter.c **** float dt_Z=0.005;//                 
  39:Core/Src/filter.c **** char  C_0_Z = 1;
  40:Core/Src/filter.c **** float Q_bias_Z, Angle_err_Z;
  41:Core/Src/filter.c **** float PCt_0_Z, PCt_1_Z, E_Z;
  42:Core/Src/filter.c **** float K_0_Z, K_1_Z, t_0_Z, t_1_Z;
  43:Core/Src/filter.c **** float Pdot_Z[4] ={0,0,0,0};
  44:Core/Src/filter.c **** float PP_Z[2][2] = { { 1, 0 },{ 0, 1 } };
  45:Core/Src/filter.c **** /**************************************************************************
  46:Core/Src/filter.c **** 函数功能：简易卡尔曼滤波
  47:Core/Src/filter.c **** 入口参数：加速度、角速度
  48:Core/Src/filter.c **** 返回  值：无
  49:Core/Src/filter.c **** **************************************************************************/
  50:Core/Src/filter.c **** 
  51:Core/Src/filter.c **** float Kalman_Filter_X(float Accel_X,float Gyro_X) {
  33              		.loc 1 51 51 view -0
  34              		.cfi_startproc
  35              		@ args = 0, pretend = 0, frame = 24
  36              		@ frame_needed = 0, uses_anonymous_args = 0
  37              		.loc 1 51 51 is_stmt 0 view .LVU1
  38 0000 2DE9F04F 		push	{r4, r5, r6, r7, r8, r9, r10, fp, lr}
  39              	.LCFI0:
  40              		.cfi_def_cfa_offset 36
  41              		.cfi_offset 4, -36
  42              		.cfi_offset 5, -32
  43              		.cfi_offset 6, -28
  44              		.cfi_offset 7, -24
  45              		.cfi_offset 8, -20
  46              		.cfi_offset 9, -16
  47              		.cfi_offset 10, -12
  48              		.cfi_offset 11, -8
  49              		.cfi_offset 14, -4
  50 0004 87B0     		sub	sp, sp, #28
  51              	.LCFI1:
  52              		.cfi_def_cfa_offset 64
  53 0006 0746     		mov	r7, r0
  54 0008 0C46     		mov	r4, r1
  52:Core/Src/filter.c **** 
  53:Core/Src/filter.c **** 	angle_X+=(Gyro_X - Q_bias_X) * dt_X; //先验估计
  55              		.loc 1 53 2 is_stmt 1 view .LVU2
  56              		.loc 1 53 19 is_stmt 0 view .LVU3
  57 000a 684B     		ldr	r3, .L3
  58 000c 1A68     		ldr	r2, [r3]	@ float
  59 000e 0292     		str	r2, [sp, #8]	@ float
  60 0010 1146     		mov	r1, r2
  61              	.LVL1:
  62              		.loc 1 53 19 view .LVU4
ARM GAS  C:\Users\Mr.Zhu\AppData\Local\Temp\ccTVJEOX.s 			page 3


  63 0012 0394     		str	r4, [sp, #12]	@ float
  64 0014 2046     		mov	r0, r4
  65              	.LVL2:
  66              		.loc 1 53 19 view .LVU5
  67 0016 FFF7FEFF 		bl	__aeabi_fsub
  68              	.LVL3:
  69              		.loc 1 53 31 view .LVU6
  70 001a 654B     		ldr	r3, .L3+4
  71 001c 1D68     		ldr	r5, [r3]	@ float
  72 001e 2946     		mov	r1, r5
  73 0020 FFF7FEFF 		bl	__aeabi_fmul
  74              	.LVL4:
  75              		.loc 1 53 9 view .LVU7
  76 0024 634C     		ldr	r4, .L3+8
  77              	.LVL5:
  78              		.loc 1 53 9 view .LVU8
  79 0026 2168     		ldr	r1, [r4]	@ float
  80 0028 FFF7FEFF 		bl	__aeabi_fadd
  81              	.LVL6:
  82 002c 0090     		str	r0, [sp]	@ float
  83 002e 2060     		str	r0, [r4]	@ float
  54:Core/Src/filter.c **** 	Pdot_X[0]=Q_angle_X- PP_X[0][1] - PP_X[1][0]; // Pk-先验估计误差协方差的微分
  84              		.loc 1 54 2 is_stmt 1 view .LVU9
  85              		.loc 1 54 30 is_stmt 0 view .LVU10
  86 0030 614C     		ldr	r4, .L3+12
  87 0032 D4F804B0 		ldr	fp, [r4, #4]	@ float
  88              		.loc 1 54 21 view .LVU11
  89 0036 5946     		mov	r1, fp
  90 0038 604B     		ldr	r3, .L3+16
  91 003a 1868     		ldr	r0, [r3]	@ float
  92 003c FFF7FEFF 		bl	__aeabi_fsub
  93              	.LVL7:
  94              		.loc 1 54 43 view .LVU12
  95 0040 D4F808A0 		ldr	r10, [r4, #8]	@ float
  96              		.loc 1 54 34 view .LVU13
  97 0044 5146     		mov	r1, r10
  98 0046 FFF7FEFF 		bl	__aeabi_fsub
  99              	.LVL8:
 100 004a 0146     		mov	r1, r0
 101              		.loc 1 54 11 view .LVU14
 102 004c 5C4B     		ldr	r3, .L3+20
 103 004e 1860     		str	r0, [r3]	@ float
  55:Core/Src/filter.c **** 
  56:Core/Src/filter.c **** 	Pdot_X[1]=-PP_X[1][1];
 104              		.loc 1 56 2 is_stmt 1 view .LVU15
 105              		.loc 1 56 20 is_stmt 0 view .LVU16
 106 0050 D4F80C80 		ldr	r8, [r4, #12]	@ float
 107              		.loc 1 56 12 view .LVU17
 108 0054 08F10046 		add	r6, r8, #-2147483648
 109              		.loc 1 56 11 view .LVU18
 110 0058 5E60     		str	r6, [r3, #4]	@ float
  57:Core/Src/filter.c **** 	Pdot_X[2]=-PP_X[1][1];
 111              		.loc 1 57 2 is_stmt 1 view .LVU19
 112              		.loc 1 57 11 is_stmt 0 view .LVU20
 113 005a 9E60     		str	r6, [r3, #8]	@ float
  58:Core/Src/filter.c **** 	Pdot_X[3]=Q_gyro_X;
 114              		.loc 1 58 2 is_stmt 1 view .LVU21
ARM GAS  C:\Users\Mr.Zhu\AppData\Local\Temp\ccTVJEOX.s 			page 4


 115              		.loc 1 58 11 is_stmt 0 view .LVU22
 116 005c 594A     		ldr	r2, .L3+24
 117 005e D2F80090 		ldr	r9, [r2]	@ float
 118 0062 C3F80C90 		str	r9, [r3, #12]	@ float
  59:Core/Src/filter.c **** 	PP_X[0][0] += Pdot_X[0] * dt_X;   // Pk-先验估计误差协方差微分的积分
 119              		.loc 1 59 2 is_stmt 1 view .LVU23
 120              		.loc 1 59 26 is_stmt 0 view .LVU24
 121 0066 2846     		mov	r0, r5
 122 0068 FFF7FEFF 		bl	__aeabi_fmul
 123              	.LVL9:
 124              		.loc 1 59 13 view .LVU25
 125 006c 2168     		ldr	r1, [r4]	@ float
 126 006e FFF7FEFF 		bl	__aeabi_fadd
 127              	.LVL10:
 128 0072 0190     		str	r0, [sp, #4]	@ float
 129 0074 2060     		str	r0, [r4]	@ float
  60:Core/Src/filter.c **** 	PP_X[0][1] += Pdot_X[1] * dt_X;   // =先验估计误差协方差
 130              		.loc 1 60 2 is_stmt 1 view .LVU26
 131              		.loc 1 60 26 is_stmt 0 view .LVU27
 132 0076 3146     		mov	r1, r6
 133 0078 2846     		mov	r0, r5
 134 007a FFF7FEFF 		bl	__aeabi_fmul
 135              	.LVL11:
 136 007e 0646     		mov	r6, r0
 137              		.loc 1 60 13 view .LVU28
 138 0080 0146     		mov	r1, r0
 139 0082 5846     		mov	r0, fp
 140 0084 FFF7FEFF 		bl	__aeabi_fadd
 141              	.LVL12:
 142 0088 8346     		mov	fp, r0
 143 008a 6060     		str	r0, [r4, #4]	@ float
  61:Core/Src/filter.c **** 	PP_X[1][0] += Pdot_X[2] * dt_X;
 144              		.loc 1 61 2 is_stmt 1 view .LVU29
 145              		.loc 1 61 13 is_stmt 0 view .LVU30
 146 008c 3146     		mov	r1, r6
 147 008e 5046     		mov	r0, r10
 148 0090 FFF7FEFF 		bl	__aeabi_fadd
 149              	.LVL13:
 150 0094 8246     		mov	r10, r0
 151 0096 A060     		str	r0, [r4, #8]	@ float
  62:Core/Src/filter.c **** 	PP_X[1][1] += Pdot_X[3] * dt_X;
 152              		.loc 1 62 2 is_stmt 1 view .LVU31
 153              		.loc 1 62 26 is_stmt 0 view .LVU32
 154 0098 4946     		mov	r1, r9
 155 009a 2846     		mov	r0, r5
 156 009c FFF7FEFF 		bl	__aeabi_fmul
 157              	.LVL14:
 158 00a0 0146     		mov	r1, r0
 159              		.loc 1 62 13 view .LVU33
 160 00a2 4046     		mov	r0, r8
 161 00a4 FFF7FEFF 		bl	__aeabi_fadd
 162              	.LVL15:
 163 00a8 0490     		str	r0, [sp, #16]	@ float
 164 00aa E060     		str	r0, [r4, #12]	@ float
  63:Core/Src/filter.c **** 		
  64:Core/Src/filter.c **** 	Angle_err_X = Accel_X - angle_X;	//zk-先验估计
 165              		.loc 1 64 2 is_stmt 1 view .LVU34
ARM GAS  C:\Users\Mr.Zhu\AppData\Local\Temp\ccTVJEOX.s 			page 5


 166              		.loc 1 64 24 is_stmt 0 view .LVU35
 167 00ac 0099     		ldr	r1, [sp]	@ float
 168 00ae 3846     		mov	r0, r7
 169 00b0 FFF7FEFF 		bl	__aeabi_fsub
 170              	.LVL16:
 171 00b4 8146     		mov	r9, r0
 172              		.loc 1 64 14 view .LVU36
 173 00b6 444B     		ldr	r3, .L3+28
 174 00b8 1860     		str	r0, [r3]	@ float
  65:Core/Src/filter.c **** 	
  66:Core/Src/filter.c **** 	PCt_0_X = C_0_X * PP_X[0][0];
 175              		.loc 1 66 2 is_stmt 1 view .LVU37
 176              		.loc 1 66 18 is_stmt 0 view .LVU38
 177 00ba 444B     		ldr	r3, .L3+32
 178 00bc 1878     		ldrb	r0, [r3]	@ zero_extendqisi2
 179 00be FFF7FEFF 		bl	__aeabi_i2f
 180              	.LVL17:
 181 00c2 0746     		mov	r7, r0
 182              	.LVL18:
 183              		.loc 1 66 18 view .LVU39
 184 00c4 0146     		mov	r1, r0
 185 00c6 0198     		ldr	r0, [sp, #4]	@ float
 186 00c8 FFF7FEFF 		bl	__aeabi_fmul
 187              	.LVL19:
 188 00cc 0546     		mov	r5, r0
 189              		.loc 1 66 10 view .LVU40
 190 00ce 404B     		ldr	r3, .L3+36
 191 00d0 1860     		str	r0, [r3]	@ float
  67:Core/Src/filter.c **** 	PCt_1_X = C_0_X * PP_X[1][0];
 192              		.loc 1 67 2 is_stmt 1 view .LVU41
 193              		.loc 1 67 18 is_stmt 0 view .LVU42
 194 00d2 3946     		mov	r1, r7
 195 00d4 5046     		mov	r0, r10
 196 00d6 FFF7FEFF 		bl	__aeabi_fmul
 197              	.LVL20:
 198              		.loc 1 67 10 view .LVU43
 199 00da 3E4B     		ldr	r3, .L3+40
 200 00dc 0590     		str	r0, [sp, #20]	@ float
 201 00de 1860     		str	r0, [r3]	@ float
  68:Core/Src/filter.c **** 	
  69:Core/Src/filter.c **** 	E_X = R_angle_X + C_0_X * PCt_0_X;
 202              		.loc 1 69 2 is_stmt 1 view .LVU44
 203              		.loc 1 69 26 is_stmt 0 view .LVU45
 204 00e0 2946     		mov	r1, r5
 205 00e2 3846     		mov	r0, r7
 206 00e4 FFF7FEFF 		bl	__aeabi_fmul
 207              	.LVL21:
 208              		.loc 1 69 18 view .LVU46
 209 00e8 3B4B     		ldr	r3, .L3+44
 210 00ea 1968     		ldr	r1, [r3]	@ float
 211 00ec FFF7FEFF 		bl	__aeabi_fadd
 212              	.LVL22:
 213 00f0 8046     		mov	r8, r0
 214              		.loc 1 69 6 view .LVU47
 215 00f2 3A4B     		ldr	r3, .L3+48
 216 00f4 1860     		str	r0, [r3]	@ float
  70:Core/Src/filter.c **** 	
ARM GAS  C:\Users\Mr.Zhu\AppData\Local\Temp\ccTVJEOX.s 			page 6


  71:Core/Src/filter.c **** 	K_0_X = PCt_0_X / E_X;
 217              		.loc 1 71 2 is_stmt 1 view .LVU48
 218              		.loc 1 71 18 is_stmt 0 view .LVU49
 219 00f6 0146     		mov	r1, r0
 220 00f8 2846     		mov	r0, r5
 221 00fa FFF7FEFF 		bl	__aeabi_fdiv
 222              	.LVL23:
 223 00fe 0646     		mov	r6, r0
 224              		.loc 1 71 8 view .LVU50
 225 0100 374B     		ldr	r3, .L3+52
 226 0102 1860     		str	r0, [r3]	@ float
  72:Core/Src/filter.c **** 	K_1_X = PCt_1_X / E_X;
 227              		.loc 1 72 2 is_stmt 1 view .LVU51
 228              		.loc 1 72 18 is_stmt 0 view .LVU52
 229 0104 4146     		mov	r1, r8
 230 0106 0598     		ldr	r0, [sp, #20]	@ float
 231 0108 FFF7FEFF 		bl	__aeabi_fdiv
 232              	.LVL24:
 233 010c 8046     		mov	r8, r0
 234              		.loc 1 72 8 view .LVU53
 235 010e 354B     		ldr	r3, .L3+56
 236 0110 1860     		str	r0, [r3]	@ float
  73:Core/Src/filter.c **** 	
  74:Core/Src/filter.c **** 	t_0_X = PCt_0_X;
 237              		.loc 1 74 2 is_stmt 1 view .LVU54
 238              		.loc 1 74 8 is_stmt 0 view .LVU55
 239 0112 354B     		ldr	r3, .L3+60
 240 0114 1D60     		str	r5, [r3]	@ float
  75:Core/Src/filter.c **** 	t_1_X = C_0_X * PP_X[0][1];
 241              		.loc 1 75 2 is_stmt 1 view .LVU56
 242              		.loc 1 75 16 is_stmt 0 view .LVU57
 243 0116 3946     		mov	r1, r7
 244 0118 5846     		mov	r0, fp
 245 011a FFF7FEFF 		bl	__aeabi_fmul
 246              	.LVL25:
 247 011e 0746     		mov	r7, r0
 248              		.loc 1 75 8 view .LVU58
 249 0120 324B     		ldr	r3, .L3+64
 250 0122 1860     		str	r0, [r3]	@ float
  76:Core/Src/filter.c **** 
  77:Core/Src/filter.c **** 	PP_X[0][0] -= K_0_X * t_0_X;		 //后验估计误差协方差
 251              		.loc 1 77 2 is_stmt 1 view .LVU59
 252              		.loc 1 77 22 is_stmt 0 view .LVU60
 253 0124 3146     		mov	r1, r6
 254 0126 2846     		mov	r0, r5
 255 0128 FFF7FEFF 		bl	__aeabi_fmul
 256              	.LVL26:
 257 012c 0146     		mov	r1, r0
 258              		.loc 1 77 13 view .LVU61
 259 012e 0198     		ldr	r0, [sp, #4]	@ float
 260 0130 FFF7FEFF 		bl	__aeabi_fsub
 261              	.LVL27:
 262 0134 2060     		str	r0, [r4]	@ float
  78:Core/Src/filter.c **** 	PP_X[0][1] -= K_0_X * t_1_X;
 263              		.loc 1 78 2 is_stmt 1 view .LVU62
 264              		.loc 1 78 22 is_stmt 0 view .LVU63
 265 0136 3946     		mov	r1, r7
ARM GAS  C:\Users\Mr.Zhu\AppData\Local\Temp\ccTVJEOX.s 			page 7


 266 0138 3046     		mov	r0, r6
 267 013a FFF7FEFF 		bl	__aeabi_fmul
 268              	.LVL28:
 269 013e 0146     		mov	r1, r0
 270              		.loc 1 78 13 view .LVU64
 271 0140 5846     		mov	r0, fp
 272 0142 FFF7FEFF 		bl	__aeabi_fsub
 273              	.LVL29:
 274 0146 6060     		str	r0, [r4, #4]	@ float
  79:Core/Src/filter.c **** 	PP_X[1][0] -= K_1_X * t_0_X;
 275              		.loc 1 79 2 is_stmt 1 view .LVU65
 276              		.loc 1 79 22 is_stmt 0 view .LVU66
 277 0148 4146     		mov	r1, r8
 278 014a 2846     		mov	r0, r5
 279 014c FFF7FEFF 		bl	__aeabi_fmul
 280              	.LVL30:
 281 0150 0146     		mov	r1, r0
 282              		.loc 1 79 13 view .LVU67
 283 0152 5046     		mov	r0, r10
 284 0154 FFF7FEFF 		bl	__aeabi_fsub
 285              	.LVL31:
 286 0158 A060     		str	r0, [r4, #8]	@ float
  80:Core/Src/filter.c **** 	PP_X[1][1] -= K_1_X * t_1_X;
 287              		.loc 1 80 2 is_stmt 1 view .LVU68
 288              		.loc 1 80 22 is_stmt 0 view .LVU69
 289 015a 3946     		mov	r1, r7
 290 015c 4046     		mov	r0, r8
 291 015e FFF7FEFF 		bl	__aeabi_fmul
 292              	.LVL32:
 293 0162 0146     		mov	r1, r0
 294              		.loc 1 80 13 view .LVU70
 295 0164 0498     		ldr	r0, [sp, #16]	@ float
 296 0166 FFF7FEFF 		bl	__aeabi_fsub
 297              	.LVL33:
 298 016a E060     		str	r0, [r4, #12]	@ float
  81:Core/Src/filter.c **** 		
  82:Core/Src/filter.c **** 	angle_X	+= K_0_X * Angle_err_X;	 //后验估计
 299              		.loc 1 82 2 is_stmt 1 view .LVU71
 300              		.loc 1 82 19 is_stmt 0 view .LVU72
 301 016c 3146     		mov	r1, r6
 302 016e 4846     		mov	r0, r9
 303 0170 FFF7FEFF 		bl	__aeabi_fmul
 304              	.LVL34:
 305 0174 0146     		mov	r1, r0
 306              		.loc 1 82 10 view .LVU73
 307 0176 0098     		ldr	r0, [sp]	@ float
 308 0178 FFF7FEFF 		bl	__aeabi_fadd
 309              	.LVL35:
 310 017c 0446     		mov	r4, r0
 311 017e 0D4B     		ldr	r3, .L3+8
 312 0180 1860     		str	r0, [r3]	@ float
  83:Core/Src/filter.c **** 	Q_bias_X	+= K_1_X * Angle_err_X;	 //后验估计
 313              		.loc 1 83 2 is_stmt 1 view .LVU74
 314              		.loc 1 83 20 is_stmt 0 view .LVU75
 315 0182 4146     		mov	r1, r8
 316 0184 4846     		mov	r0, r9
 317 0186 FFF7FEFF 		bl	__aeabi_fmul
ARM GAS  C:\Users\Mr.Zhu\AppData\Local\Temp\ccTVJEOX.s 			page 8


 318              	.LVL36:
 319 018a 0146     		mov	r1, r0
 320              		.loc 1 83 11 view .LVU76
 321 018c 0298     		ldr	r0, [sp, #8]	@ float
 322 018e FFF7FEFF 		bl	__aeabi_fadd
 323              	.LVL37:
 324 0192 0146     		mov	r1, r0
 325 0194 054B     		ldr	r3, .L3
 326 0196 1860     		str	r0, [r3]	@ float
  84:Core/Src/filter.c **** 	angle_dot_X   = Gyro_X - Q_bias_X;	 //输出值(后验估计)的微分=角速度
 327              		.loc 1 84 2 is_stmt 1 view .LVU77
 328              		.loc 1 84 25 is_stmt 0 view .LVU78
 329 0198 0398     		ldr	r0, [sp, #12]	@ float
 330 019a FFF7FEFF 		bl	__aeabi_fsub
 331              	.LVL38:
 332              		.loc 1 84 16 view .LVU79
 333 019e 144B     		ldr	r3, .L3+68
 334 01a0 1860     		str	r0, [r3]	@ float
  85:Core/Src/filter.c **** 	return angle_X;
 335              		.loc 1 85 2 is_stmt 1 view .LVU80
  86:Core/Src/filter.c **** }
 336              		.loc 1 86 1 is_stmt 0 view .LVU81
 337 01a2 2046     		mov	r0, r4
 338 01a4 07B0     		add	sp, sp, #28
 339              	.LCFI2:
 340              		.cfi_def_cfa_offset 36
 341              		@ sp needed
 342 01a6 BDE8F08F 		pop	{r4, r5, r6, r7, r8, r9, r10, fp, pc}
 343              	.LVL39:
 344              	.L4:
 345              		.loc 1 86 1 view .LVU82
 346 01aa 00BF     		.align	2
 347              	.L3:
 348 01ac 00000000 		.word	.LANCHOR0
 349 01b0 00000000 		.word	.LANCHOR1
 350 01b4 00000000 		.word	.LANCHOR2
 351 01b8 00000000 		.word	.LANCHOR3
 352 01bc 00000000 		.word	.LANCHOR4
 353 01c0 00000000 		.word	.LANCHOR5
 354 01c4 00000000 		.word	.LANCHOR6
 355 01c8 00000000 		.word	.LANCHOR7
 356 01cc 00000000 		.word	.LANCHOR8
 357 01d0 00000000 		.word	.LANCHOR9
 358 01d4 00000000 		.word	.LANCHOR10
 359 01d8 00000000 		.word	.LANCHOR11
 360 01dc 00000000 		.word	.LANCHOR12
 361 01e0 00000000 		.word	.LANCHOR13
 362 01e4 00000000 		.word	.LANCHOR14
 363 01e8 00000000 		.word	.LANCHOR15
 364 01ec 00000000 		.word	.LANCHOR16
 365 01f0 00000000 		.word	.LANCHOR17
 366              		.cfi_endproc
 367              	.LFE68:
 369              		.section	.text.Kalman_Filter_Y,"ax",%progbits
 370              		.align	1
 371              		.global	Kalman_Filter_Y
 372              		.syntax unified
ARM GAS  C:\Users\Mr.Zhu\AppData\Local\Temp\ccTVJEOX.s 			page 9


 373              		.thumb
 374              		.thumb_func
 375              		.fpu softvfp
 377              	Kalman_Filter_Y:
 378              	.LVL40:
 379              	.LFB69:
  87:Core/Src/filter.c **** 
  88:Core/Src/filter.c **** float Kalman_Filter_Y(float Accel_Y,float Gyro_Y) {
 380              		.loc 1 88 51 is_stmt 1 view -0
 381              		.cfi_startproc
 382              		@ args = 0, pretend = 0, frame = 24
 383              		@ frame_needed = 0, uses_anonymous_args = 0
 384              		.loc 1 88 51 is_stmt 0 view .LVU84
 385 0000 2DE9F04F 		push	{r4, r5, r6, r7, r8, r9, r10, fp, lr}
 386              	.LCFI3:
 387              		.cfi_def_cfa_offset 36
 388              		.cfi_offset 4, -36
 389              		.cfi_offset 5, -32
 390              		.cfi_offset 6, -28
 391              		.cfi_offset 7, -24
 392              		.cfi_offset 8, -20
 393              		.cfi_offset 9, -16
 394              		.cfi_offset 10, -12
 395              		.cfi_offset 11, -8
 396              		.cfi_offset 14, -4
 397 0004 87B0     		sub	sp, sp, #28
 398              	.LCFI4:
 399              		.cfi_def_cfa_offset 64
 400 0006 0746     		mov	r7, r0
 401 0008 0C46     		mov	r4, r1
  89:Core/Src/filter.c **** 
  90:Core/Src/filter.c **** 	angle_Y+=(Gyro_Y - Q_bias_Y) * dt_Y; //先验估计
 402              		.loc 1 90 2 is_stmt 1 view .LVU85
 403              		.loc 1 90 19 is_stmt 0 view .LVU86
 404 000a 684B     		ldr	r3, .L7
 405 000c 1A68     		ldr	r2, [r3]	@ float
 406 000e 0292     		str	r2, [sp, #8]	@ float
 407 0010 1146     		mov	r1, r2
 408              	.LVL41:
 409              		.loc 1 90 19 view .LVU87
 410 0012 0394     		str	r4, [sp, #12]	@ float
 411 0014 2046     		mov	r0, r4
 412              	.LVL42:
 413              		.loc 1 90 19 view .LVU88
 414 0016 FFF7FEFF 		bl	__aeabi_fsub
 415              	.LVL43:
 416              		.loc 1 90 31 view .LVU89
 417 001a 654B     		ldr	r3, .L7+4
 418 001c 1D68     		ldr	r5, [r3]	@ float
 419 001e 2946     		mov	r1, r5
 420 0020 FFF7FEFF 		bl	__aeabi_fmul
 421              	.LVL44:
 422              		.loc 1 90 9 view .LVU90
 423 0024 634C     		ldr	r4, .L7+8
 424              	.LVL45:
 425              		.loc 1 90 9 view .LVU91
 426 0026 2168     		ldr	r1, [r4]	@ float
ARM GAS  C:\Users\Mr.Zhu\AppData\Local\Temp\ccTVJEOX.s 			page 10


 427 0028 FFF7FEFF 		bl	__aeabi_fadd
 428              	.LVL46:
 429 002c 0090     		str	r0, [sp]	@ float
 430 002e 2060     		str	r0, [r4]	@ float
  91:Core/Src/filter.c **** 	Pdot_Y[0]=Q_angle_Y- PP_Y[0][1] - PP_Y[1][0]; // Pk-先验估计误差协方差的微分
 431              		.loc 1 91 2 is_stmt 1 view .LVU92
 432              		.loc 1 91 30 is_stmt 0 view .LVU93
 433 0030 614C     		ldr	r4, .L7+12
 434 0032 D4F804B0 		ldr	fp, [r4, #4]	@ float
 435              		.loc 1 91 21 view .LVU94
 436 0036 5946     		mov	r1, fp
 437 0038 604B     		ldr	r3, .L7+16
 438 003a 1868     		ldr	r0, [r3]	@ float
 439 003c FFF7FEFF 		bl	__aeabi_fsub
 440              	.LVL47:
 441              		.loc 1 91 43 view .LVU95
 442 0040 D4F808A0 		ldr	r10, [r4, #8]	@ float
 443              		.loc 1 91 34 view .LVU96
 444 0044 5146     		mov	r1, r10
 445 0046 FFF7FEFF 		bl	__aeabi_fsub
 446              	.LVL48:
 447 004a 0146     		mov	r1, r0
 448              		.loc 1 91 11 view .LVU97
 449 004c 5C4B     		ldr	r3, .L7+20
 450 004e 1860     		str	r0, [r3]	@ float
  92:Core/Src/filter.c **** 
  93:Core/Src/filter.c **** 	Pdot_Y[1]=-PP_Y[1][1];
 451              		.loc 1 93 2 is_stmt 1 view .LVU98
 452              		.loc 1 93 20 is_stmt 0 view .LVU99
 453 0050 D4F80C80 		ldr	r8, [r4, #12]	@ float
 454              		.loc 1 93 12 view .LVU100
 455 0054 08F10046 		add	r6, r8, #-2147483648
 456              		.loc 1 93 11 view .LVU101
 457 0058 5E60     		str	r6, [r3, #4]	@ float
  94:Core/Src/filter.c **** 	Pdot_Y[2]=-PP_Y[1][1];
 458              		.loc 1 94 2 is_stmt 1 view .LVU102
 459              		.loc 1 94 11 is_stmt 0 view .LVU103
 460 005a 9E60     		str	r6, [r3, #8]	@ float
  95:Core/Src/filter.c **** 	Pdot_Y[3]=Q_gyro_Y;
 461              		.loc 1 95 2 is_stmt 1 view .LVU104
 462              		.loc 1 95 11 is_stmt 0 view .LVU105
 463 005c 594A     		ldr	r2, .L7+24
 464 005e D2F80090 		ldr	r9, [r2]	@ float
 465 0062 C3F80C90 		str	r9, [r3, #12]	@ float
  96:Core/Src/filter.c **** 	PP_Y[0][0] += Pdot_Y[0] * dt_Y;   // Pk-先验估计误差协方差微分的积分
 466              		.loc 1 96 2 is_stmt 1 view .LVU106
 467              		.loc 1 96 26 is_stmt 0 view .LVU107
 468 0066 2846     		mov	r0, r5
 469 0068 FFF7FEFF 		bl	__aeabi_fmul
 470              	.LVL49:
 471              		.loc 1 96 13 view .LVU108
 472 006c 2168     		ldr	r1, [r4]	@ float
 473 006e FFF7FEFF 		bl	__aeabi_fadd
 474              	.LVL50:
 475 0072 0190     		str	r0, [sp, #4]	@ float
 476 0074 2060     		str	r0, [r4]	@ float
  97:Core/Src/filter.c **** 	PP_Y[0][1] += Pdot_Y[1] * dt_Y;   // =先验估计误差协方差
ARM GAS  C:\Users\Mr.Zhu\AppData\Local\Temp\ccTVJEOX.s 			page 11


 477              		.loc 1 97 2 is_stmt 1 view .LVU109
 478              		.loc 1 97 26 is_stmt 0 view .LVU110
 479 0076 3146     		mov	r1, r6
 480 0078 2846     		mov	r0, r5
 481 007a FFF7FEFF 		bl	__aeabi_fmul
 482              	.LVL51:
 483 007e 0646     		mov	r6, r0
 484              		.loc 1 97 13 view .LVU111
 485 0080 0146     		mov	r1, r0
 486 0082 5846     		mov	r0, fp
 487 0084 FFF7FEFF 		bl	__aeabi_fadd
 488              	.LVL52:
 489 0088 8346     		mov	fp, r0
 490 008a 6060     		str	r0, [r4, #4]	@ float
  98:Core/Src/filter.c **** 	PP_Y[1][0] += Pdot_Y[2] * dt_Y;
 491              		.loc 1 98 2 is_stmt 1 view .LVU112
 492              		.loc 1 98 13 is_stmt 0 view .LVU113
 493 008c 3146     		mov	r1, r6
 494 008e 5046     		mov	r0, r10
 495 0090 FFF7FEFF 		bl	__aeabi_fadd
 496              	.LVL53:
 497 0094 8246     		mov	r10, r0
 498 0096 A060     		str	r0, [r4, #8]	@ float
  99:Core/Src/filter.c **** 	PP_Y[1][1] += Pdot_Y[3] * dt_Y;
 499              		.loc 1 99 2 is_stmt 1 view .LVU114
 500              		.loc 1 99 26 is_stmt 0 view .LVU115
 501 0098 4946     		mov	r1, r9
 502 009a 2846     		mov	r0, r5
 503 009c FFF7FEFF 		bl	__aeabi_fmul
 504              	.LVL54:
 505 00a0 0146     		mov	r1, r0
 506              		.loc 1 99 13 view .LVU116
 507 00a2 4046     		mov	r0, r8
 508 00a4 FFF7FEFF 		bl	__aeabi_fadd
 509              	.LVL55:
 510 00a8 0490     		str	r0, [sp, #16]	@ float
 511 00aa E060     		str	r0, [r4, #12]	@ float
 100:Core/Src/filter.c **** 		
 101:Core/Src/filter.c **** 	Angle_err_Y = Accel_Y - angle_Y;	//zk-先验估计
 512              		.loc 1 101 2 is_stmt 1 view .LVU117
 513              		.loc 1 101 24 is_stmt 0 view .LVU118
 514 00ac 0099     		ldr	r1, [sp]	@ float
 515 00ae 3846     		mov	r0, r7
 516 00b0 FFF7FEFF 		bl	__aeabi_fsub
 517              	.LVL56:
 518 00b4 8146     		mov	r9, r0
 519              		.loc 1 101 14 view .LVU119
 520 00b6 444B     		ldr	r3, .L7+28
 521 00b8 1860     		str	r0, [r3]	@ float
 102:Core/Src/filter.c **** 	
 103:Core/Src/filter.c **** 	PCt_0_Y = C_0_Y * PP_Y[0][0];
 522              		.loc 1 103 2 is_stmt 1 view .LVU120
 523              		.loc 1 103 18 is_stmt 0 view .LVU121
 524 00ba 444B     		ldr	r3, .L7+32
 525 00bc 1878     		ldrb	r0, [r3]	@ zero_extendqisi2
 526 00be FFF7FEFF 		bl	__aeabi_i2f
 527              	.LVL57:
ARM GAS  C:\Users\Mr.Zhu\AppData\Local\Temp\ccTVJEOX.s 			page 12


 528 00c2 0746     		mov	r7, r0
 529              	.LVL58:
 530              		.loc 1 103 18 view .LVU122
 531 00c4 0146     		mov	r1, r0
 532 00c6 0198     		ldr	r0, [sp, #4]	@ float
 533 00c8 FFF7FEFF 		bl	__aeabi_fmul
 534              	.LVL59:
 535 00cc 0546     		mov	r5, r0
 536              		.loc 1 103 10 view .LVU123
 537 00ce 404B     		ldr	r3, .L7+36
 538 00d0 1860     		str	r0, [r3]	@ float
 104:Core/Src/filter.c **** 	PCt_1_Y = C_0_Y * PP_Y[1][0];
 539              		.loc 1 104 2 is_stmt 1 view .LVU124
 540              		.loc 1 104 18 is_stmt 0 view .LVU125
 541 00d2 3946     		mov	r1, r7
 542 00d4 5046     		mov	r0, r10
 543 00d6 FFF7FEFF 		bl	__aeabi_fmul
 544              	.LVL60:
 545              		.loc 1 104 10 view .LVU126
 546 00da 3E4B     		ldr	r3, .L7+40
 547 00dc 0590     		str	r0, [sp, #20]	@ float
 548 00de 1860     		str	r0, [r3]	@ float
 105:Core/Src/filter.c **** 	
 106:Core/Src/filter.c **** 	E_Y = R_angle_Y + C_0_Y * PCt_0_Y;
 549              		.loc 1 106 2 is_stmt 1 view .LVU127
 550              		.loc 1 106 26 is_stmt 0 view .LVU128
 551 00e0 2946     		mov	r1, r5
 552 00e2 3846     		mov	r0, r7
 553 00e4 FFF7FEFF 		bl	__aeabi_fmul
 554              	.LVL61:
 555              		.loc 1 106 18 view .LVU129
 556 00e8 3B4B     		ldr	r3, .L7+44
 557 00ea 1968     		ldr	r1, [r3]	@ float
 558 00ec FFF7FEFF 		bl	__aeabi_fadd
 559              	.LVL62:
 560 00f0 8046     		mov	r8, r0
 561              		.loc 1 106 6 view .LVU130
 562 00f2 3A4B     		ldr	r3, .L7+48
 563 00f4 1860     		str	r0, [r3]	@ float
 107:Core/Src/filter.c **** 	
 108:Core/Src/filter.c **** 	K_0_Y = PCt_0_Y / E_Y;
 564              		.loc 1 108 2 is_stmt 1 view .LVU131
 565              		.loc 1 108 18 is_stmt 0 view .LVU132
 566 00f6 0146     		mov	r1, r0
 567 00f8 2846     		mov	r0, r5
 568 00fa FFF7FEFF 		bl	__aeabi_fdiv
 569              	.LVL63:
 570 00fe 0646     		mov	r6, r0
 571              		.loc 1 108 8 view .LVU133
 572 0100 374B     		ldr	r3, .L7+52
 573 0102 1860     		str	r0, [r3]	@ float
 109:Core/Src/filter.c **** 	K_1_Y = PCt_1_Y / E_Y;
 574              		.loc 1 109 2 is_stmt 1 view .LVU134
 575              		.loc 1 109 18 is_stmt 0 view .LVU135
 576 0104 4146     		mov	r1, r8
 577 0106 0598     		ldr	r0, [sp, #20]	@ float
 578 0108 FFF7FEFF 		bl	__aeabi_fdiv
ARM GAS  C:\Users\Mr.Zhu\AppData\Local\Temp\ccTVJEOX.s 			page 13


 579              	.LVL64:
 580 010c 8046     		mov	r8, r0
 581              		.loc 1 109 8 view .LVU136
 582 010e 354B     		ldr	r3, .L7+56
 583 0110 1860     		str	r0, [r3]	@ float
 110:Core/Src/filter.c **** 	
 111:Core/Src/filter.c **** 	t_0_Y = PCt_0_Y;
 584              		.loc 1 111 2 is_stmt 1 view .LVU137
 585              		.loc 1 111 8 is_stmt 0 view .LVU138
 586 0112 354B     		ldr	r3, .L7+60
 587 0114 1D60     		str	r5, [r3]	@ float
 112:Core/Src/filter.c **** 	t_1_Y = C_0_Y * PP_Y[0][1];
 588              		.loc 1 112 2 is_stmt 1 view .LVU139
 589              		.loc 1 112 16 is_stmt 0 view .LVU140
 590 0116 3946     		mov	r1, r7
 591 0118 5846     		mov	r0, fp
 592 011a FFF7FEFF 		bl	__aeabi_fmul
 593              	.LVL65:
 594 011e 0746     		mov	r7, r0
 595              		.loc 1 112 8 view .LVU141
 596 0120 324B     		ldr	r3, .L7+64
 597 0122 1860     		str	r0, [r3]	@ float
 113:Core/Src/filter.c **** 
 114:Core/Src/filter.c **** 	PP_Y[0][0] -= K_0_Y * t_0_Y;		 //后验估计误差协方差
 598              		.loc 1 114 2 is_stmt 1 view .LVU142
 599              		.loc 1 114 22 is_stmt 0 view .LVU143
 600 0124 3146     		mov	r1, r6
 601 0126 2846     		mov	r0, r5
 602 0128 FFF7FEFF 		bl	__aeabi_fmul
 603              	.LVL66:
 604 012c 0146     		mov	r1, r0
 605              		.loc 1 114 13 view .LVU144
 606 012e 0198     		ldr	r0, [sp, #4]	@ float
 607 0130 FFF7FEFF 		bl	__aeabi_fsub
 608              	.LVL67:
 609 0134 2060     		str	r0, [r4]	@ float
 115:Core/Src/filter.c **** 	PP_Y[0][1] -= K_0_Y * t_1_Y;
 610              		.loc 1 115 2 is_stmt 1 view .LVU145
 611              		.loc 1 115 22 is_stmt 0 view .LVU146
 612 0136 3946     		mov	r1, r7
 613 0138 3046     		mov	r0, r6
 614 013a FFF7FEFF 		bl	__aeabi_fmul
 615              	.LVL68:
 616 013e 0146     		mov	r1, r0
 617              		.loc 1 115 13 view .LVU147
 618 0140 5846     		mov	r0, fp
 619 0142 FFF7FEFF 		bl	__aeabi_fsub
 620              	.LVL69:
 621 0146 6060     		str	r0, [r4, #4]	@ float
 116:Core/Src/filter.c **** 	PP_Y[1][0] -= K_1_Y * t_0_Y;
 622              		.loc 1 116 2 is_stmt 1 view .LVU148
 623              		.loc 1 116 22 is_stmt 0 view .LVU149
 624 0148 4146     		mov	r1, r8
 625 014a 2846     		mov	r0, r5
 626 014c FFF7FEFF 		bl	__aeabi_fmul
 627              	.LVL70:
 628 0150 0146     		mov	r1, r0
ARM GAS  C:\Users\Mr.Zhu\AppData\Local\Temp\ccTVJEOX.s 			page 14


 629              		.loc 1 116 13 view .LVU150
 630 0152 5046     		mov	r0, r10
 631 0154 FFF7FEFF 		bl	__aeabi_fsub
 632              	.LVL71:
 633 0158 A060     		str	r0, [r4, #8]	@ float
 117:Core/Src/filter.c **** 	PP_Y[1][1] -= K_1_Y * t_1_Y;
 634              		.loc 1 117 2 is_stmt 1 view .LVU151
 635              		.loc 1 117 22 is_stmt 0 view .LVU152
 636 015a 3946     		mov	r1, r7
 637 015c 4046     		mov	r0, r8
 638 015e FFF7FEFF 		bl	__aeabi_fmul
 639              	.LVL72:
 640 0162 0146     		mov	r1, r0
 641              		.loc 1 117 13 view .LVU153
 642 0164 0498     		ldr	r0, [sp, #16]	@ float
 643 0166 FFF7FEFF 		bl	__aeabi_fsub
 644              	.LVL73:
 645 016a E060     		str	r0, [r4, #12]	@ float
 118:Core/Src/filter.c **** 		
 119:Core/Src/filter.c **** 	angle_Y	+= K_0_Y * Angle_err_Y;	 //后验估计
 646              		.loc 1 119 2 is_stmt 1 view .LVU154
 647              		.loc 1 119 19 is_stmt 0 view .LVU155
 648 016c 3146     		mov	r1, r6
 649 016e 4846     		mov	r0, r9
 650 0170 FFF7FEFF 		bl	__aeabi_fmul
 651              	.LVL74:
 652 0174 0146     		mov	r1, r0
 653              		.loc 1 119 10 view .LVU156
 654 0176 0098     		ldr	r0, [sp]	@ float
 655 0178 FFF7FEFF 		bl	__aeabi_fadd
 656              	.LVL75:
 657 017c 0446     		mov	r4, r0
 658 017e 0D4B     		ldr	r3, .L7+8
 659 0180 1860     		str	r0, [r3]	@ float
 120:Core/Src/filter.c **** 	Q_bias_Y	+= K_1_Y * Angle_err_Y;	 //后验估计
 660              		.loc 1 120 2 is_stmt 1 view .LVU157
 661              		.loc 1 120 20 is_stmt 0 view .LVU158
 662 0182 4146     		mov	r1, r8
 663 0184 4846     		mov	r0, r9
 664 0186 FFF7FEFF 		bl	__aeabi_fmul
 665              	.LVL76:
 666 018a 0146     		mov	r1, r0
 667              		.loc 1 120 11 view .LVU159
 668 018c 0298     		ldr	r0, [sp, #8]	@ float
 669 018e FFF7FEFF 		bl	__aeabi_fadd
 670              	.LVL77:
 671 0192 0146     		mov	r1, r0
 672 0194 054B     		ldr	r3, .L7
 673 0196 1860     		str	r0, [r3]	@ float
 121:Core/Src/filter.c **** 	angle_dot_Y  = Gyro_Y - Q_bias_Y;	 //输出值(后验估计)的微分=角速度
 674              		.loc 1 121 2 is_stmt 1 view .LVU160
 675              		.loc 1 121 24 is_stmt 0 view .LVU161
 676 0198 0398     		ldr	r0, [sp, #12]	@ float
 677 019a FFF7FEFF 		bl	__aeabi_fsub
 678              	.LVL78:
 679              		.loc 1 121 15 view .LVU162
 680 019e 144B     		ldr	r3, .L7+68
ARM GAS  C:\Users\Mr.Zhu\AppData\Local\Temp\ccTVJEOX.s 			page 15


 681 01a0 1860     		str	r0, [r3]	@ float
 122:Core/Src/filter.c **** 	return angle_Y;
 682              		.loc 1 122 2 is_stmt 1 view .LVU163
 123:Core/Src/filter.c **** }
 683              		.loc 1 123 1 is_stmt 0 view .LVU164
 684 01a2 2046     		mov	r0, r4
 685 01a4 07B0     		add	sp, sp, #28
 686              	.LCFI5:
 687              		.cfi_def_cfa_offset 36
 688              		@ sp needed
 689 01a6 BDE8F08F 		pop	{r4, r5, r6, r7, r8, r9, r10, fp, pc}
 690              	.LVL79:
 691              	.L8:
 692              		.loc 1 123 1 view .LVU165
 693 01aa 00BF     		.align	2
 694              	.L7:
 695 01ac 00000000 		.word	.LANCHOR18
 696 01b0 00000000 		.word	.LANCHOR19
 697 01b4 00000000 		.word	.LANCHOR20
 698 01b8 00000000 		.word	.LANCHOR21
 699 01bc 00000000 		.word	.LANCHOR22
 700 01c0 00000000 		.word	.LANCHOR23
 701 01c4 00000000 		.word	.LANCHOR24
 702 01c8 00000000 		.word	.LANCHOR25
 703 01cc 00000000 		.word	.LANCHOR26
 704 01d0 00000000 		.word	.LANCHOR27
 705 01d4 00000000 		.word	.LANCHOR28
 706 01d8 00000000 		.word	.LANCHOR29
 707 01dc 00000000 		.word	.LANCHOR30
 708 01e0 00000000 		.word	.LANCHOR31
 709 01e4 00000000 		.word	.LANCHOR32
 710 01e8 00000000 		.word	.LANCHOR33
 711 01ec 00000000 		.word	.LANCHOR34
 712 01f0 00000000 		.word	.LANCHOR35
 713              		.cfi_endproc
 714              	.LFE69:
 716              		.section	.text.Kalman_Filter_Z,"ax",%progbits
 717              		.align	1
 718              		.global	Kalman_Filter_Z
 719              		.syntax unified
 720              		.thumb
 721              		.thumb_func
 722              		.fpu softvfp
 724              	Kalman_Filter_Z:
 725              	.LVL80:
 726              	.LFB70:
 124:Core/Src/filter.c **** 
 125:Core/Src/filter.c **** 
 126:Core/Src/filter.c **** 
 127:Core/Src/filter.c **** float Kalman_Filter_Z(float Accel_Z,float Gyro_Z) {
 727              		.loc 1 127 51 is_stmt 1 view -0
 728              		.cfi_startproc
 729              		@ args = 0, pretend = 0, frame = 24
 730              		@ frame_needed = 0, uses_anonymous_args = 0
 731              		.loc 1 127 51 is_stmt 0 view .LVU167
 732 0000 2DE9F04F 		push	{r4, r5, r6, r7, r8, r9, r10, fp, lr}
 733              	.LCFI6:
ARM GAS  C:\Users\Mr.Zhu\AppData\Local\Temp\ccTVJEOX.s 			page 16


 734              		.cfi_def_cfa_offset 36
 735              		.cfi_offset 4, -36
 736              		.cfi_offset 5, -32
 737              		.cfi_offset 6, -28
 738              		.cfi_offset 7, -24
 739              		.cfi_offset 8, -20
 740              		.cfi_offset 9, -16
 741              		.cfi_offset 10, -12
 742              		.cfi_offset 11, -8
 743              		.cfi_offset 14, -4
 744 0004 87B0     		sub	sp, sp, #28
 745              	.LCFI7:
 746              		.cfi_def_cfa_offset 64
 747 0006 0746     		mov	r7, r0
 748 0008 0C46     		mov	r4, r1
 128:Core/Src/filter.c **** 
 129:Core/Src/filter.c **** 	angle_Z+=(Gyro_Z - Q_bias_Z) * dt_Z; //先验估计
 749              		.loc 1 129 2 is_stmt 1 view .LVU168
 750              		.loc 1 129 19 is_stmt 0 view .LVU169
 751 000a 684B     		ldr	r3, .L11
 752 000c 1A68     		ldr	r2, [r3]	@ float
 753 000e 0292     		str	r2, [sp, #8]	@ float
 754 0010 1146     		mov	r1, r2
 755              	.LVL81:
 756              		.loc 1 129 19 view .LVU170
 757 0012 0394     		str	r4, [sp, #12]	@ float
 758 0014 2046     		mov	r0, r4
 759              	.LVL82:
 760              		.loc 1 129 19 view .LVU171
 761 0016 FFF7FEFF 		bl	__aeabi_fsub
 762              	.LVL83:
 763              		.loc 1 129 31 view .LVU172
 764 001a 654B     		ldr	r3, .L11+4
 765 001c 1D68     		ldr	r5, [r3]	@ float
 766 001e 2946     		mov	r1, r5
 767 0020 FFF7FEFF 		bl	__aeabi_fmul
 768              	.LVL84:
 769              		.loc 1 129 9 view .LVU173
 770 0024 634C     		ldr	r4, .L11+8
 771              	.LVL85:
 772              		.loc 1 129 9 view .LVU174
 773 0026 2168     		ldr	r1, [r4]	@ float
 774 0028 FFF7FEFF 		bl	__aeabi_fadd
 775              	.LVL86:
 776 002c 0090     		str	r0, [sp]	@ float
 777 002e 2060     		str	r0, [r4]	@ float
 130:Core/Src/filter.c **** 	Pdot_Z[0]=Q_angle_Z- PP_Z[0][1] - PP_Z[1][0]; // Pk-先验估计误差协方差的微分
 778              		.loc 1 130 2 is_stmt 1 view .LVU175
 779              		.loc 1 130 30 is_stmt 0 view .LVU176
 780 0030 614C     		ldr	r4, .L11+12
 781 0032 D4F804B0 		ldr	fp, [r4, #4]	@ float
 782              		.loc 1 130 21 view .LVU177
 783 0036 5946     		mov	r1, fp
 784 0038 604B     		ldr	r3, .L11+16
 785 003a 1868     		ldr	r0, [r3]	@ float
 786 003c FFF7FEFF 		bl	__aeabi_fsub
 787              	.LVL87:
ARM GAS  C:\Users\Mr.Zhu\AppData\Local\Temp\ccTVJEOX.s 			page 17


 788              		.loc 1 130 43 view .LVU178
 789 0040 D4F808A0 		ldr	r10, [r4, #8]	@ float
 790              		.loc 1 130 34 view .LVU179
 791 0044 5146     		mov	r1, r10
 792 0046 FFF7FEFF 		bl	__aeabi_fsub
 793              	.LVL88:
 794 004a 0146     		mov	r1, r0
 795              		.loc 1 130 11 view .LVU180
 796 004c 5C4B     		ldr	r3, .L11+20
 797 004e 1860     		str	r0, [r3]	@ float
 131:Core/Src/filter.c **** 
 132:Core/Src/filter.c **** 	Pdot_Z[1]=-PP_Z[1][1];
 798              		.loc 1 132 2 is_stmt 1 view .LVU181
 799              		.loc 1 132 20 is_stmt 0 view .LVU182
 800 0050 D4F80C80 		ldr	r8, [r4, #12]	@ float
 801              		.loc 1 132 12 view .LVU183
 802 0054 08F10046 		add	r6, r8, #-2147483648
 803              		.loc 1 132 11 view .LVU184
 804 0058 5E60     		str	r6, [r3, #4]	@ float
 133:Core/Src/filter.c **** 	Pdot_Z[2]=-PP_Z[1][1];
 805              		.loc 1 133 2 is_stmt 1 view .LVU185
 806              		.loc 1 133 11 is_stmt 0 view .LVU186
 807 005a 9E60     		str	r6, [r3, #8]	@ float
 134:Core/Src/filter.c **** 	Pdot_Z[3]=Q_gyro_Z;
 808              		.loc 1 134 2 is_stmt 1 view .LVU187
 809              		.loc 1 134 11 is_stmt 0 view .LVU188
 810 005c 594A     		ldr	r2, .L11+24
 811 005e D2F80090 		ldr	r9, [r2]	@ float
 812 0062 C3F80C90 		str	r9, [r3, #12]	@ float
 135:Core/Src/filter.c **** 	PP_Z[0][0] += Pdot_Z[0] * dt_Z;   // Pk-先验估计误差协方差微分的积分
 813              		.loc 1 135 2 is_stmt 1 view .LVU189
 814              		.loc 1 135 26 is_stmt 0 view .LVU190
 815 0066 2846     		mov	r0, r5
 816 0068 FFF7FEFF 		bl	__aeabi_fmul
 817              	.LVL89:
 818              		.loc 1 135 13 view .LVU191
 819 006c 2168     		ldr	r1, [r4]	@ float
 820 006e FFF7FEFF 		bl	__aeabi_fadd
 821              	.LVL90:
 822 0072 0190     		str	r0, [sp, #4]	@ float
 823 0074 2060     		str	r0, [r4]	@ float
 136:Core/Src/filter.c **** 	PP_Z[0][1] += Pdot_Z[1] * dt_Z;   // =先验估计误差协方差
 824              		.loc 1 136 2 is_stmt 1 view .LVU192
 825              		.loc 1 136 26 is_stmt 0 view .LVU193
 826 0076 3146     		mov	r1, r6
 827 0078 2846     		mov	r0, r5
 828 007a FFF7FEFF 		bl	__aeabi_fmul
 829              	.LVL91:
 830 007e 0646     		mov	r6, r0
 831              		.loc 1 136 13 view .LVU194
 832 0080 0146     		mov	r1, r0
 833 0082 5846     		mov	r0, fp
 834 0084 FFF7FEFF 		bl	__aeabi_fadd
 835              	.LVL92:
 836 0088 8346     		mov	fp, r0
 837 008a 6060     		str	r0, [r4, #4]	@ float
 137:Core/Src/filter.c **** 	PP_Z[1][0] += Pdot_Z[2] * dt_Z;
ARM GAS  C:\Users\Mr.Zhu\AppData\Local\Temp\ccTVJEOX.s 			page 18


 838              		.loc 1 137 2 is_stmt 1 view .LVU195
 839              		.loc 1 137 13 is_stmt 0 view .LVU196
 840 008c 3146     		mov	r1, r6
 841 008e 5046     		mov	r0, r10
 842 0090 FFF7FEFF 		bl	__aeabi_fadd
 843              	.LVL93:
 844 0094 8246     		mov	r10, r0
 845 0096 A060     		str	r0, [r4, #8]	@ float
 138:Core/Src/filter.c **** 	PP_Z[1][1] += Pdot_Z[3] * dt_Z;
 846              		.loc 1 138 2 is_stmt 1 view .LVU197
 847              		.loc 1 138 26 is_stmt 0 view .LVU198
 848 0098 4946     		mov	r1, r9
 849 009a 2846     		mov	r0, r5
 850 009c FFF7FEFF 		bl	__aeabi_fmul
 851              	.LVL94:
 852 00a0 0146     		mov	r1, r0
 853              		.loc 1 138 13 view .LVU199
 854 00a2 4046     		mov	r0, r8
 855 00a4 FFF7FEFF 		bl	__aeabi_fadd
 856              	.LVL95:
 857 00a8 0490     		str	r0, [sp, #16]	@ float
 858 00aa E060     		str	r0, [r4, #12]	@ float
 139:Core/Src/filter.c **** 		
 140:Core/Src/filter.c **** 	Angle_err_Z = Accel_Z - angle_Z;	//zk-先验估计
 859              		.loc 1 140 2 is_stmt 1 view .LVU200
 860              		.loc 1 140 24 is_stmt 0 view .LVU201
 861 00ac 0099     		ldr	r1, [sp]	@ float
 862 00ae 3846     		mov	r0, r7
 863 00b0 FFF7FEFF 		bl	__aeabi_fsub
 864              	.LVL96:
 865 00b4 8146     		mov	r9, r0
 866              		.loc 1 140 14 view .LVU202
 867 00b6 444B     		ldr	r3, .L11+28
 868 00b8 1860     		str	r0, [r3]	@ float
 141:Core/Src/filter.c **** 	
 142:Core/Src/filter.c **** 	PCt_0_Z = C_0_Z * PP_Z[0][0];
 869              		.loc 1 142 2 is_stmt 1 view .LVU203
 870              		.loc 1 142 18 is_stmt 0 view .LVU204
 871 00ba 444B     		ldr	r3, .L11+32
 872 00bc 1878     		ldrb	r0, [r3]	@ zero_extendqisi2
 873 00be FFF7FEFF 		bl	__aeabi_i2f
 874              	.LVL97:
 875 00c2 0746     		mov	r7, r0
 876              	.LVL98:
 877              		.loc 1 142 18 view .LVU205
 878 00c4 0146     		mov	r1, r0
 879 00c6 0198     		ldr	r0, [sp, #4]	@ float
 880 00c8 FFF7FEFF 		bl	__aeabi_fmul
 881              	.LVL99:
 882 00cc 0546     		mov	r5, r0
 883              		.loc 1 142 10 view .LVU206
 884 00ce 404B     		ldr	r3, .L11+36
 885 00d0 1860     		str	r0, [r3]	@ float
 143:Core/Src/filter.c **** 	PCt_1_Z = C_0_Z * PP_Z[1][0];
 886              		.loc 1 143 2 is_stmt 1 view .LVU207
 887              		.loc 1 143 18 is_stmt 0 view .LVU208
 888 00d2 3946     		mov	r1, r7
ARM GAS  C:\Users\Mr.Zhu\AppData\Local\Temp\ccTVJEOX.s 			page 19


 889 00d4 5046     		mov	r0, r10
 890 00d6 FFF7FEFF 		bl	__aeabi_fmul
 891              	.LVL100:
 892              		.loc 1 143 10 view .LVU209
 893 00da 3E4B     		ldr	r3, .L11+40
 894 00dc 0590     		str	r0, [sp, #20]	@ float
 895 00de 1860     		str	r0, [r3]	@ float
 144:Core/Src/filter.c **** 	
 145:Core/Src/filter.c **** 	E_Z = R_angle_Z + C_0_Z * PCt_0_Z;
 896              		.loc 1 145 2 is_stmt 1 view .LVU210
 897              		.loc 1 145 26 is_stmt 0 view .LVU211
 898 00e0 2946     		mov	r1, r5
 899 00e2 3846     		mov	r0, r7
 900 00e4 FFF7FEFF 		bl	__aeabi_fmul
 901              	.LVL101:
 902              		.loc 1 145 18 view .LVU212
 903 00e8 3B4B     		ldr	r3, .L11+44
 904 00ea 1968     		ldr	r1, [r3]	@ float
 905 00ec FFF7FEFF 		bl	__aeabi_fadd
 906              	.LVL102:
 907 00f0 8046     		mov	r8, r0
 908              		.loc 1 145 6 view .LVU213
 909 00f2 3A4B     		ldr	r3, .L11+48
 910 00f4 1860     		str	r0, [r3]	@ float
 146:Core/Src/filter.c **** 	
 147:Core/Src/filter.c **** 	K_0_Z = PCt_0_Z / E_Z;
 911              		.loc 1 147 2 is_stmt 1 view .LVU214
 912              		.loc 1 147 18 is_stmt 0 view .LVU215
 913 00f6 0146     		mov	r1, r0
 914 00f8 2846     		mov	r0, r5
 915 00fa FFF7FEFF 		bl	__aeabi_fdiv
 916              	.LVL103:
 917 00fe 0646     		mov	r6, r0
 918              		.loc 1 147 8 view .LVU216
 919 0100 374B     		ldr	r3, .L11+52
 920 0102 1860     		str	r0, [r3]	@ float
 148:Core/Src/filter.c **** 	K_1_Z = PCt_1_Z / E_Z;
 921              		.loc 1 148 2 is_stmt 1 view .LVU217
 922              		.loc 1 148 18 is_stmt 0 view .LVU218
 923 0104 4146     		mov	r1, r8
 924 0106 0598     		ldr	r0, [sp, #20]	@ float
 925 0108 FFF7FEFF 		bl	__aeabi_fdiv
 926              	.LVL104:
 927 010c 8046     		mov	r8, r0
 928              		.loc 1 148 8 view .LVU219
 929 010e 354B     		ldr	r3, .L11+56
 930 0110 1860     		str	r0, [r3]	@ float
 149:Core/Src/filter.c **** 	
 150:Core/Src/filter.c **** 	t_0_Z = PCt_0_Z;
 931              		.loc 1 150 2 is_stmt 1 view .LVU220
 932              		.loc 1 150 8 is_stmt 0 view .LVU221
 933 0112 354B     		ldr	r3, .L11+60
 934 0114 1D60     		str	r5, [r3]	@ float
 151:Core/Src/filter.c **** 	t_1_Z = C_0_Z * PP_Z[0][1];
 935              		.loc 1 151 2 is_stmt 1 view .LVU222
 936              		.loc 1 151 16 is_stmt 0 view .LVU223
 937 0116 3946     		mov	r1, r7
ARM GAS  C:\Users\Mr.Zhu\AppData\Local\Temp\ccTVJEOX.s 			page 20


 938 0118 5846     		mov	r0, fp
 939 011a FFF7FEFF 		bl	__aeabi_fmul
 940              	.LVL105:
 941 011e 0746     		mov	r7, r0
 942              		.loc 1 151 8 view .LVU224
 943 0120 324B     		ldr	r3, .L11+64
 944 0122 1860     		str	r0, [r3]	@ float
 152:Core/Src/filter.c **** 
 153:Core/Src/filter.c **** 	PP_Z[0][0] -= K_0_Z * t_0_Z;		 //后验估计误差协方差
 945              		.loc 1 153 2 is_stmt 1 view .LVU225
 946              		.loc 1 153 22 is_stmt 0 view .LVU226
 947 0124 3146     		mov	r1, r6
 948 0126 2846     		mov	r0, r5
 949 0128 FFF7FEFF 		bl	__aeabi_fmul
 950              	.LVL106:
 951 012c 0146     		mov	r1, r0
 952              		.loc 1 153 13 view .LVU227
 953 012e 0198     		ldr	r0, [sp, #4]	@ float
 954 0130 FFF7FEFF 		bl	__aeabi_fsub
 955              	.LVL107:
 956 0134 2060     		str	r0, [r4]	@ float
 154:Core/Src/filter.c **** 	PP_Z[0][1] -= K_0_Z * t_1_Z;
 957              		.loc 1 154 2 is_stmt 1 view .LVU228
 958              		.loc 1 154 22 is_stmt 0 view .LVU229
 959 0136 3946     		mov	r1, r7
 960 0138 3046     		mov	r0, r6
 961 013a FFF7FEFF 		bl	__aeabi_fmul
 962              	.LVL108:
 963 013e 0146     		mov	r1, r0
 964              		.loc 1 154 13 view .LVU230
 965 0140 5846     		mov	r0, fp
 966 0142 FFF7FEFF 		bl	__aeabi_fsub
 967              	.LVL109:
 968 0146 6060     		str	r0, [r4, #4]	@ float
 155:Core/Src/filter.c **** 	PP_Z[1][0] -= K_1_Z * t_0_Z;
 969              		.loc 1 155 2 is_stmt 1 view .LVU231
 970              		.loc 1 155 22 is_stmt 0 view .LVU232
 971 0148 4146     		mov	r1, r8
 972 014a 2846     		mov	r0, r5
 973 014c FFF7FEFF 		bl	__aeabi_fmul
 974              	.LVL110:
 975 0150 0146     		mov	r1, r0
 976              		.loc 1 155 13 view .LVU233
 977 0152 5046     		mov	r0, r10
 978 0154 FFF7FEFF 		bl	__aeabi_fsub
 979              	.LVL111:
 980 0158 A060     		str	r0, [r4, #8]	@ float
 156:Core/Src/filter.c **** 	PP_Z[1][1] -= K_1_Z * t_1_Z;
 981              		.loc 1 156 2 is_stmt 1 view .LVU234
 982              		.loc 1 156 22 is_stmt 0 view .LVU235
 983 015a 3946     		mov	r1, r7
 984 015c 4046     		mov	r0, r8
 985 015e FFF7FEFF 		bl	__aeabi_fmul
 986              	.LVL112:
 987 0162 0146     		mov	r1, r0
 988              		.loc 1 156 13 view .LVU236
 989 0164 0498     		ldr	r0, [sp, #16]	@ float
ARM GAS  C:\Users\Mr.Zhu\AppData\Local\Temp\ccTVJEOX.s 			page 21


 990 0166 FFF7FEFF 		bl	__aeabi_fsub
 991              	.LVL113:
 992 016a E060     		str	r0, [r4, #12]	@ float
 157:Core/Src/filter.c **** 		
 158:Core/Src/filter.c **** 	angle_Z	+= K_0_Z * Angle_err_Z;	 //后验估计
 993              		.loc 1 158 2 is_stmt 1 view .LVU237
 994              		.loc 1 158 19 is_stmt 0 view .LVU238
 995 016c 3146     		mov	r1, r6
 996 016e 4846     		mov	r0, r9
 997 0170 FFF7FEFF 		bl	__aeabi_fmul
 998              	.LVL114:
 999 0174 0146     		mov	r1, r0
 1000              		.loc 1 158 10 view .LVU239
 1001 0176 0098     		ldr	r0, [sp]	@ float
 1002 0178 FFF7FEFF 		bl	__aeabi_fadd
 1003              	.LVL115:
 1004 017c 0446     		mov	r4, r0
 1005 017e 0D4B     		ldr	r3, .L11+8
 1006 0180 1860     		str	r0, [r3]	@ float
 159:Core/Src/filter.c **** 	Q_bias_Z	+= K_1_Z * Angle_err_Z;	 //后验估计
 1007              		.loc 1 159 2 is_stmt 1 view .LVU240
 1008              		.loc 1 159 20 is_stmt 0 view .LVU241
 1009 0182 4146     		mov	r1, r8
 1010 0184 4846     		mov	r0, r9
 1011 0186 FFF7FEFF 		bl	__aeabi_fmul
 1012              	.LVL116:
 1013 018a 0146     		mov	r1, r0
 1014              		.loc 1 159 11 view .LVU242
 1015 018c 0298     		ldr	r0, [sp, #8]	@ float
 1016 018e FFF7FEFF 		bl	__aeabi_fadd
 1017              	.LVL117:
 1018 0192 0146     		mov	r1, r0
 1019 0194 054B     		ldr	r3, .L11
 1020 0196 1860     		str	r0, [r3]	@ float
 160:Core/Src/filter.c **** 	angle_dot_Z  = Gyro_Z - Q_bias_Z;	 //输出值(后验估计)的微分=角速度
 1021              		.loc 1 160 2 is_stmt 1 view .LVU243
 1022              		.loc 1 160 24 is_stmt 0 view .LVU244
 1023 0198 0398     		ldr	r0, [sp, #12]	@ float
 1024 019a FFF7FEFF 		bl	__aeabi_fsub
 1025              	.LVL118:
 1026              		.loc 1 160 15 view .LVU245
 1027 019e 144B     		ldr	r3, .L11+68
 1028 01a0 1860     		str	r0, [r3]	@ float
 161:Core/Src/filter.c **** 	return angle_Z;
 1029              		.loc 1 161 2 is_stmt 1 view .LVU246
 162:Core/Src/filter.c **** }
 1030              		.loc 1 162 1 is_stmt 0 view .LVU247
 1031 01a2 2046     		mov	r0, r4
 1032 01a4 07B0     		add	sp, sp, #28
 1033              	.LCFI8:
 1034              		.cfi_def_cfa_offset 36
 1035              		@ sp needed
 1036 01a6 BDE8F08F 		pop	{r4, r5, r6, r7, r8, r9, r10, fp, pc}
 1037              	.LVL119:
 1038              	.L12:
 1039              		.loc 1 162 1 view .LVU248
 1040 01aa 00BF     		.align	2
ARM GAS  C:\Users\Mr.Zhu\AppData\Local\Temp\ccTVJEOX.s 			page 22


 1041              	.L11:
 1042 01ac 00000000 		.word	.LANCHOR36
 1043 01b0 00000000 		.word	.LANCHOR37
 1044 01b4 00000000 		.word	.LANCHOR38
 1045 01b8 00000000 		.word	.LANCHOR39
 1046 01bc 00000000 		.word	.LANCHOR40
 1047 01c0 00000000 		.word	.LANCHOR41
 1048 01c4 00000000 		.word	.LANCHOR42
 1049 01c8 00000000 		.word	.LANCHOR43
 1050 01cc 00000000 		.word	.LANCHOR44
 1051 01d0 00000000 		.word	.LANCHOR45
 1052 01d4 00000000 		.word	.LANCHOR46
 1053 01d8 00000000 		.word	.LANCHOR47
 1054 01dc 00000000 		.word	.LANCHOR48
 1055 01e0 00000000 		.word	.LANCHOR49
 1056 01e4 00000000 		.word	.LANCHOR50
 1057 01e8 00000000 		.word	.LANCHOR51
 1058 01ec 00000000 		.word	.LANCHOR52
 1059 01f0 00000000 		.word	.LANCHOR53
 1060              		.cfi_endproc
 1061              	.LFE70:
 1063              		.global	__aeabi_fcmpgt
 1064              		.global	__aeabi_fcmpeq
 1065              		.global	__aeabi_f2d
 1066              		.global	__aeabi_ddiv
 1067              		.global	__aeabi_d2f
 1068              		.global	__aeabi_dmul
 1069              		.global	__aeabi_f2iz
 1070              		.section	.text.Filter_Get_Angle,"ax",%progbits
 1071              		.align	1
 1072              		.global	Filter_Get_Angle
 1073              		.syntax unified
 1074              		.thumb
 1075              		.thumb_func
 1076              		.fpu softvfp
 1078              	Filter_Get_Angle:
 1079              	.LFB71:
 163:Core/Src/filter.c **** 
 164:Core/Src/filter.c **** //===========   获取横滚角和俯仰角   ============
 165:Core/Src/filter.c **** void Filter_Get_Angle(void) {
 1080              		.loc 1 165 29 is_stmt 1 view -0
 1081              		.cfi_startproc
 1082              		@ args = 0, pretend = 0, frame = 0
 1083              		@ frame_needed = 0, uses_anonymous_args = 0
 1084 0000 2DE9F047 		push	{r4, r5, r6, r7, r8, r9, r10, lr}
 1085              	.LCFI9:
 1086              		.cfi_def_cfa_offset 32
 1087              		.cfi_offset 4, -32
 1088              		.cfi_offset 5, -28
 1089              		.cfi_offset 6, -24
 1090              		.cfi_offset 7, -20
 1091              		.cfi_offset 8, -16
 1092              		.cfi_offset 9, -12
 1093              		.cfi_offset 10, -8
 1094              		.cfi_offset 14, -4
 166:Core/Src/filter.c **** 	float Accel_Y,Accel_X,Gyro_Y,Gyro_X;
 1095              		.loc 1 166 2 view .LVU250
ARM GAS  C:\Users\Mr.Zhu\AppData\Local\Temp\ccTVJEOX.s 			page 23


 167:Core/Src/filter.c **** 	float MPU_Accel_X,MPU_Accel_Z,MPU_Accel_Y,MPU_Gyro_Y,MPU_Gyro_X,MPU_Gyro_Z;
 1096              		.loc 1 167 2 view .LVU251
 168:Core/Src/filter.c **** 
 169:Core/Src/filter.c **** 	MPU_Gyro_Y=(MPU_I2C_ReadOneByte(0x68,0x45)<<8)+MPU_I2C_ReadOneByte(0x68,0x46);    //读取Y轴陀螺仪
 1097              		.loc 1 169 2 view .LVU252
 1098              		.loc 1 169 14 is_stmt 0 view .LVU253
 1099 0004 4521     		movs	r1, #69
 1100 0006 6820     		movs	r0, #104
 1101 0008 FFF7FEFF 		bl	MPU_I2C_ReadOneByte
 1102              	.LVL120:
 1103              		.loc 1 169 44 view .LVU254
 1104 000c 0402     		lsls	r4, r0, #8
 1105              		.loc 1 169 49 view .LVU255
 1106 000e 4621     		movs	r1, #70
 1107 0010 6820     		movs	r0, #104
 1108 0012 FFF7FEFF 		bl	MPU_I2C_ReadOneByte
 1109              	.LVL121:
 1110              		.loc 1 169 12 view .LVU256
 1111 0016 2044     		add	r0, r0, r4
 1112 0018 FFF7FEFF 		bl	__aeabi_i2f
 1113              	.LVL122:
 1114 001c 0546     		mov	r5, r0
 1115              	.LVL123:
 170:Core/Src/filter.c **** 	MPU_Gyro_X=(MPU_I2C_ReadOneByte(0x68,0x43)<<8)+MPU_I2C_ReadOneByte(0x68,0x44); 
 1116              		.loc 1 170 2 is_stmt 1 view .LVU257
 1117              		.loc 1 170 14 is_stmt 0 view .LVU258
 1118 001e 4321     		movs	r1, #67
 1119 0020 6820     		movs	r0, #104
 1120              	.LVL124:
 1121              		.loc 1 170 14 view .LVU259
 1122 0022 FFF7FEFF 		bl	MPU_I2C_ReadOneByte
 1123              	.LVL125:
 1124              		.loc 1 170 44 view .LVU260
 1125 0026 0402     		lsls	r4, r0, #8
 1126              		.loc 1 170 49 view .LVU261
 1127 0028 4421     		movs	r1, #68
 1128 002a 6820     		movs	r0, #104
 1129 002c FFF7FEFF 		bl	MPU_I2C_ReadOneByte
 1130              	.LVL126:
 1131              		.loc 1 170 12 view .LVU262
 1132 0030 2044     		add	r0, r0, r4
 1133 0032 FFF7FEFF 		bl	__aeabi_i2f
 1134              	.LVL127:
 1135 0036 0446     		mov	r4, r0
 1136              	.LVL128:
 171:Core/Src/filter.c **** 	MPU_Gyro_Z=(MPU_I2C_ReadOneByte(0x68,0x47)<<8)+MPU_I2C_ReadOneByte(0x68,0x48); 
 1137              		.loc 1 171 2 is_stmt 1 view .LVU263
 1138              		.loc 1 171 14 is_stmt 0 view .LVU264
 1139 0038 4721     		movs	r1, #71
 1140 003a 6820     		movs	r0, #104
 1141              	.LVL129:
 1142              		.loc 1 171 14 view .LVU265
 1143 003c FFF7FEFF 		bl	MPU_I2C_ReadOneByte
 1144              	.LVL130:
 1145              		.loc 1 171 49 view .LVU266
 1146 0040 4821     		movs	r1, #72
 1147 0042 6820     		movs	r0, #104
ARM GAS  C:\Users\Mr.Zhu\AppData\Local\Temp\ccTVJEOX.s 			page 24


 1148 0044 FFF7FEFF 		bl	MPU_I2C_ReadOneByte
 1149              	.LVL131:
 172:Core/Src/filter.c **** 	if(MPU_Gyro_Y>32767)  (MPU_Gyro_Y==32768) ? (MPU_Gyro_Y=-32768): (MPU_Gyro_Y-=65536);     
 1150              		.loc 1 172 2 is_stmt 1 view .LVU267
 1151              		.loc 1 172 4 is_stmt 0 view .LVU268
 1152 0048 7549     		ldr	r1, .L35+16
 1153 004a 2846     		mov	r0, r5
 1154 004c FFF7FEFF 		bl	__aeabi_fcmpgt
 1155              	.LVL132:
 1156 0050 70B1     		cbz	r0, .L14
 1157              		.loc 1 172 24 is_stmt 1 discriminator 1 view .LVU269
 1158              		.loc 1 172 65 is_stmt 0 discriminator 1 view .LVU270
 1159 0052 4FF08E41 		mov	r1, #1191182336
 1160 0056 2846     		mov	r0, r5
 1161 0058 FFF7FEFF 		bl	__aeabi_fcmpeq
 1162              	.LVL133:
 1163 005c 30B9     		cbnz	r0, .L24
 1164              		.loc 1 172 78 discriminator 3 view .LVU271
 1165 005e 4FF08F41 		mov	r1, #1199570944
 1166 0062 2846     		mov	r0, r5
 1167 0064 FFF7FEFF 		bl	__aeabi_fsub
 1168              	.LVL134:
 1169 0068 0546     		mov	r5, r0
 1170              	.LVL135:
 1171              		.loc 1 172 78 discriminator 3 view .LVU272
 1172 006a 01E0     		b	.L14
 1173              	.LVL136:
 1174              	.L24:
 1175              		.loc 1 172 57 view .LVU273
 1176 006c 4FF04745 		mov	r5, #-956301312
 1177              	.LVL137:
 1178              	.L14:
 173:Core/Src/filter.c **** 	if(MPU_Gyro_X>32767)  (MPU_Gyro_X==32768) ? (MPU_Gyro_X=-32768): (MPU_Gyro_X-=65536); 
 1179              		.loc 1 173 2 is_stmt 1 view .LVU274
 1180              		.loc 1 173 4 is_stmt 0 view .LVU275
 1181 0070 6B49     		ldr	r1, .L35+16
 1182 0072 2046     		mov	r0, r4
 1183 0074 FFF7FEFF 		bl	__aeabi_fcmpgt
 1184              	.LVL138:
 1185 0078 70B1     		cbz	r0, .L16
 1186              		.loc 1 173 24 is_stmt 1 discriminator 1 view .LVU276
 1187              		.loc 1 173 65 is_stmt 0 discriminator 1 view .LVU277
 1188 007a 4FF08E41 		mov	r1, #1191182336
 1189 007e 2046     		mov	r0, r4
 1190 0080 FFF7FEFF 		bl	__aeabi_fcmpeq
 1191              	.LVL139:
 1192 0084 30B9     		cbnz	r0, .L25
 1193              		.loc 1 173 78 discriminator 3 view .LVU278
 1194 0086 4FF08F41 		mov	r1, #1199570944
 1195 008a 2046     		mov	r0, r4
 1196 008c FFF7FEFF 		bl	__aeabi_fsub
 1197              	.LVL140:
 1198 0090 0446     		mov	r4, r0
 1199              	.LVL141:
 1200              		.loc 1 173 78 discriminator 3 view .LVU279
 1201 0092 01E0     		b	.L16
 1202              	.LVL142:
ARM GAS  C:\Users\Mr.Zhu\AppData\Local\Temp\ccTVJEOX.s 			page 25


 1203              	.L25:
 1204              		.loc 1 173 57 view .LVU280
 1205 0094 4FF04744 		mov	r4, #-956301312
 1206              	.LVL143:
 1207              	.L16:
 174:Core/Src/filter.c **** 	if(MPU_Gyro_Z>32767)  (MPU_Gyro_Z==32768) ? (MPU_Gyro_Z=-32768): (MPU_Gyro_Z-=65536); 
 1208              		.loc 1 174 2 is_stmt 1 view .LVU281
 175:Core/Src/filter.c **** 	Gyro_Y=MPU_Gyro_Y/16.4;                                   
 1209              		.loc 1 175 2 view .LVU282
 1210              		.loc 1 175 19 is_stmt 0 view .LVU283
 1211 0098 2846     		mov	r0, r5
 1212 009a FFF7FEFF 		bl	__aeabi_f2d
 1213              	.LVL144:
 1214 009e 5CA3     		adr	r3, .L35
 1215 00a0 D3E90023 		ldrd	r2, [r3]
 1216 00a4 FFF7FEFF 		bl	__aeabi_ddiv
 1217              	.LVL145:
 1218              		.loc 1 175 8 view .LVU284
 1219 00a8 FFF7FEFF 		bl	__aeabi_d2f
 1220              	.LVL146:
 1221 00ac 0646     		mov	r6, r0
 1222              	.LVL147:
 176:Core/Src/filter.c **** 	Gyro_X=MPU_Gyro_X/16.4;                                                                      
 1223              		.loc 1 176 2 is_stmt 1 view .LVU285
 1224              		.loc 1 176 19 is_stmt 0 view .LVU286
 1225 00ae 2046     		mov	r0, r4
 1226              	.LVL148:
 1227              		.loc 1 176 19 view .LVU287
 1228 00b0 FFF7FEFF 		bl	__aeabi_f2d
 1229              	.LVL149:
 1230 00b4 56A3     		adr	r3, .L35
 1231 00b6 D3E90023 		ldrd	r2, [r3]
 1232 00ba FFF7FEFF 		bl	__aeabi_ddiv
 1233              	.LVL150:
 1234              		.loc 1 176 8 view .LVU288
 1235 00be FFF7FEFF 		bl	__aeabi_d2f
 1236              	.LVL151:
 1237 00c2 8246     		mov	r10, r0
 1238              	.LVL152:
 177:Core/Src/filter.c **** 
 178:Core/Src/filter.c **** 	MPU_Accel_Z=(MPU_I2C_ReadOneByte(0x68,0x3F)<<8)+MPU_I2C_ReadOneByte(0x68,0x40);    //读取Z轴陀螺仪
 1239              		.loc 1 178 2 is_stmt 1 view .LVU289
 1240              		.loc 1 178 15 is_stmt 0 view .LVU290
 1241 00c4 3F21     		movs	r1, #63
 1242 00c6 6820     		movs	r0, #104
 1243              	.LVL153:
 1244              		.loc 1 178 15 view .LVU291
 1245 00c8 FFF7FEFF 		bl	MPU_I2C_ReadOneByte
 1246              	.LVL154:
 1247              		.loc 1 178 45 view .LVU292
 1248 00cc 0402     		lsls	r4, r0, #8
 1249              	.LVL155:
 1250              		.loc 1 178 50 view .LVU293
 1251 00ce 4021     		movs	r1, #64
 1252 00d0 6820     		movs	r0, #104
 1253 00d2 FFF7FEFF 		bl	MPU_I2C_ReadOneByte
 1254              	.LVL156:
ARM GAS  C:\Users\Mr.Zhu\AppData\Local\Temp\ccTVJEOX.s 			page 26


 1255              		.loc 1 178 13 view .LVU294
 1256 00d6 2044     		add	r0, r0, r4
 1257 00d8 FFF7FEFF 		bl	__aeabi_i2f
 1258              	.LVL157:
 1259 00dc 0546     		mov	r5, r0
 1260              	.LVL158:
 179:Core/Src/filter.c **** 	MPU_Accel_X=(MPU_I2C_ReadOneByte(0x68,0x3B)<<8)+MPU_I2C_ReadOneByte(0x68,0x3C); //读取X轴加速度记
 1261              		.loc 1 179 2 is_stmt 1 view .LVU295
 1262              		.loc 1 179 15 is_stmt 0 view .LVU296
 1263 00de 3B21     		movs	r1, #59
 1264 00e0 6820     		movs	r0, #104
 1265              	.LVL159:
 1266              		.loc 1 179 15 view .LVU297
 1267 00e2 FFF7FEFF 		bl	MPU_I2C_ReadOneByte
 1268              	.LVL160:
 1269              		.loc 1 179 45 view .LVU298
 1270 00e6 0402     		lsls	r4, r0, #8
 1271              		.loc 1 179 50 view .LVU299
 1272 00e8 3C21     		movs	r1, #60
 1273 00ea 6820     		movs	r0, #104
 1274 00ec FFF7FEFF 		bl	MPU_I2C_ReadOneByte
 1275              	.LVL161:
 1276              		.loc 1 179 13 view .LVU300
 1277 00f0 2044     		add	r0, r0, r4
 1278 00f2 FFF7FEFF 		bl	__aeabi_i2f
 1279              	.LVL162:
 1280 00f6 0446     		mov	r4, r0
 1281              	.LVL163:
 180:Core/Src/filter.c **** 	MPU_Accel_Y=(MPU_I2C_ReadOneByte(0x68,0x3D)<<8)+MPU_I2C_ReadOneByte(0x68,0x3E);
 1282              		.loc 1 180 2 is_stmt 1 view .LVU301
 1283              		.loc 1 180 15 is_stmt 0 view .LVU302
 1284 00f8 3D21     		movs	r1, #61
 1285 00fa 6820     		movs	r0, #104
 1286              	.LVL164:
 1287              		.loc 1 180 15 view .LVU303
 1288 00fc FFF7FEFF 		bl	MPU_I2C_ReadOneByte
 1289              	.LVL165:
 1290              		.loc 1 180 45 view .LVU304
 1291 0100 0702     		lsls	r7, r0, #8
 1292              		.loc 1 180 50 view .LVU305
 1293 0102 3E21     		movs	r1, #62
 1294 0104 6820     		movs	r0, #104
 1295 0106 FFF7FEFF 		bl	MPU_I2C_ReadOneByte
 1296              	.LVL166:
 1297              		.loc 1 180 13 view .LVU306
 1298 010a 3844     		add	r0, r0, r7
 1299 010c FFF7FEFF 		bl	__aeabi_i2f
 1300              	.LVL167:
 1301 0110 0746     		mov	r7, r0
 1302              	.LVL168:
 181:Core/Src/filter.c **** 	if(MPU_Accel_Y>32767)  (MPU_Accel_Y==32768) ? (MPU_Accel_Y=-32768): (MPU_Accel_Y-=65536);     
 1303              		.loc 1 181 2 is_stmt 1 view .LVU307
 1304              		.loc 1 181 4 is_stmt 0 view .LVU308
 1305 0112 4349     		ldr	r1, .L35+16
 1306 0114 FFF7FEFF 		bl	__aeabi_fcmpgt
 1307              	.LVL169:
 1308              		.loc 1 181 4 view .LVU309
ARM GAS  C:\Users\Mr.Zhu\AppData\Local\Temp\ccTVJEOX.s 			page 27


 1309 0118 70B1     		cbz	r0, .L18
 1310              		.loc 1 181 25 is_stmt 1 discriminator 1 view .LVU310
 1311              		.loc 1 181 68 is_stmt 0 discriminator 1 view .LVU311
 1312 011a 4FF08E41 		mov	r1, #1191182336
 1313 011e 3846     		mov	r0, r7
 1314 0120 FFF7FEFF 		bl	__aeabi_fcmpeq
 1315              	.LVL170:
 1316 0124 30B9     		cbnz	r0, .L26
 1317              		.loc 1 181 82 discriminator 3 view .LVU312
 1318 0126 4FF08F41 		mov	r1, #1199570944
 1319 012a 3846     		mov	r0, r7
 1320 012c FFF7FEFF 		bl	__aeabi_fsub
 1321              	.LVL171:
 1322 0130 0746     		mov	r7, r0
 1323              	.LVL172:
 1324              		.loc 1 181 82 discriminator 3 view .LVU313
 1325 0132 01E0     		b	.L18
 1326              	.LVL173:
 1327              	.L26:
 1328              		.loc 1 181 60 view .LVU314
 1329 0134 4FF04747 		mov	r7, #-956301312
 1330              	.LVL174:
 1331              	.L18:
 182:Core/Src/filter.c **** 	if(MPU_Accel_X>32767)  (MPU_Accel_X==32768) ? (MPU_Accel_X=-32768): (MPU_Accel_X-=65536); 
 1332              		.loc 1 182 2 is_stmt 1 view .LVU315
 1333              		.loc 1 182 4 is_stmt 0 view .LVU316
 1334 0138 3949     		ldr	r1, .L35+16
 1335 013a 2046     		mov	r0, r4
 1336 013c FFF7FEFF 		bl	__aeabi_fcmpgt
 1337              	.LVL175:
 1338 0140 70B1     		cbz	r0, .L20
 1339              		.loc 1 182 25 is_stmt 1 discriminator 1 view .LVU317
 1340              		.loc 1 182 68 is_stmt 0 discriminator 1 view .LVU318
 1341 0142 4FF08E41 		mov	r1, #1191182336
 1342 0146 2046     		mov	r0, r4
 1343 0148 FFF7FEFF 		bl	__aeabi_fcmpeq
 1344              	.LVL176:
 1345 014c 30B9     		cbnz	r0, .L27
 1346              		.loc 1 182 82 discriminator 3 view .LVU319
 1347 014e 4FF08F41 		mov	r1, #1199570944
 1348 0152 2046     		mov	r0, r4
 1349 0154 FFF7FEFF 		bl	__aeabi_fsub
 1350              	.LVL177:
 1351 0158 0446     		mov	r4, r0
 1352              	.LVL178:
 1353              		.loc 1 182 82 discriminator 3 view .LVU320
 1354 015a 01E0     		b	.L20
 1355              	.LVL179:
 1356              	.L27:
 1357              		.loc 1 182 60 view .LVU321
 1358 015c 4FF04744 		mov	r4, #-956301312
 1359              	.LVL180:
 1360              	.L20:
 183:Core/Src/filter.c **** 	if(MPU_Accel_Z>32767)  (MPU_Accel_Z==32768) ? (MPU_Accel_Z=-32768): (MPU_Accel_Z-=65536); 
 1361              		.loc 1 183 2 is_stmt 1 view .LVU322
 1362              		.loc 1 183 4 is_stmt 0 view .LVU323
 1363 0160 2F49     		ldr	r1, .L35+16
ARM GAS  C:\Users\Mr.Zhu\AppData\Local\Temp\ccTVJEOX.s 			page 28


 1364 0162 2846     		mov	r0, r5
 1365 0164 FFF7FEFF 		bl	__aeabi_fcmpgt
 1366              	.LVL181:
 1367 0168 70B1     		cbz	r0, .L22
 1368              		.loc 1 183 25 is_stmt 1 discriminator 1 view .LVU324
 1369              		.loc 1 183 68 is_stmt 0 discriminator 1 view .LVU325
 1370 016a 4FF08E41 		mov	r1, #1191182336
 1371 016e 2846     		mov	r0, r5
 1372 0170 FFF7FEFF 		bl	__aeabi_fcmpeq
 1373              	.LVL182:
 1374 0174 30B9     		cbnz	r0, .L28
 1375              		.loc 1 183 82 discriminator 3 view .LVU326
 1376 0176 4FF08F41 		mov	r1, #1199570944
 1377 017a 2846     		mov	r0, r5
 1378 017c FFF7FEFF 		bl	__aeabi_fsub
 1379              	.LVL183:
 1380 0180 0546     		mov	r5, r0
 1381              	.LVL184:
 1382              		.loc 1 183 82 discriminator 3 view .LVU327
 1383 0182 01E0     		b	.L22
 1384              	.LVL185:
 1385              	.L28:
 1386              		.loc 1 183 60 view .LVU328
 1387 0184 4FF04745 		mov	r5, #-956301312
 1388              	.LVL186:
 1389              	.L22:
 184:Core/Src/filter.c **** 
 185:Core/Src/filter.c **** 	Accel_Y=atan2(MPU_Accel_X,MPU_Accel_Z)*180.0/PI;                 //计算与地面的夹角	
 1390              		.loc 1 185 2 is_stmt 1 view .LVU329
 1391              		.loc 1 185 10 is_stmt 0 view .LVU330
 1392 0188 2846     		mov	r0, r5
 1393 018a FFF7FEFF 		bl	__aeabi_f2d
 1394              	.LVL187:
 1395 018e 8046     		mov	r8, r0
 1396 0190 8946     		mov	r9, r1
 1397 0192 2046     		mov	r0, r4
 1398 0194 FFF7FEFF 		bl	__aeabi_f2d
 1399              	.LVL188:
 1400 0198 4246     		mov	r2, r8
 1401 019a 4B46     		mov	r3, r9
 1402 019c FFF7FEFF 		bl	atan2
 1403              	.LVL189:
 1404              		.loc 1 185 40 view .LVU331
 1405 01a0 0022     		movs	r2, #0
 1406 01a2 204B     		ldr	r3, .L35+20
 1407 01a4 FFF7FEFF 		bl	__aeabi_dmul
 1408              	.LVL190:
 1409              		.loc 1 185 46 view .LVU332
 1410 01a8 1BA3     		adr	r3, .L35+8
 1411 01aa D3E90023 		ldrd	r2, [r3]
 1412 01ae FFF7FEFF 		bl	__aeabi_ddiv
 1413              	.LVL191:
 1414              		.loc 1 185 9 view .LVU333
 1415 01b2 FFF7FEFF 		bl	__aeabi_d2f
 1416              	.LVL192:
 1417 01b6 0546     		mov	r5, r0
 1418              	.LVL193:
ARM GAS  C:\Users\Mr.Zhu\AppData\Local\Temp\ccTVJEOX.s 			page 29


 186:Core/Src/filter.c **** 	Accel_X=atan2(MPU_Accel_Y,MPU_Accel_Z)*180.0/PI; 
 1419              		.loc 1 186 2 is_stmt 1 view .LVU334
 1420              		.loc 1 186 10 is_stmt 0 view .LVU335
 1421 01b8 3846     		mov	r0, r7
 1422              	.LVL194:
 1423              		.loc 1 186 10 view .LVU336
 1424 01ba FFF7FEFF 		bl	__aeabi_f2d
 1425              	.LVL195:
 1426 01be 4246     		mov	r2, r8
 1427 01c0 4B46     		mov	r3, r9
 1428 01c2 FFF7FEFF 		bl	atan2
 1429              	.LVL196:
 1430              		.loc 1 186 40 view .LVU337
 1431 01c6 0022     		movs	r2, #0
 1432 01c8 164B     		ldr	r3, .L35+20
 1433 01ca FFF7FEFF 		bl	__aeabi_dmul
 1434              	.LVL197:
 1435              		.loc 1 186 46 view .LVU338
 1436 01ce 12A3     		adr	r3, .L35+8
 1437 01d0 D3E90023 		ldrd	r2, [r3]
 1438 01d4 FFF7FEFF 		bl	__aeabi_ddiv
 1439              	.LVL198:
 1440              		.loc 1 186 9 view .LVU339
 1441 01d8 FFF7FEFF 		bl	__aeabi_d2f
 1442              	.LVL199:
 1443 01dc 0446     		mov	r4, r0
 1444              	.LVL200:
 187:Core/Src/filter.c **** 
 188:Core/Src/filter.c **** 
 189:Core/Src/filter.c **** 	Dog_PIT=-Kalman_Filter_Y(Accel_Y,-Gyro_Y);//卡尔曼滤波	
 1445              		.loc 1 189 2 is_stmt 1 view .LVU340
 1446              		.loc 1 189 11 is_stmt 0 view .LVU341
 1447 01de 06F10041 		add	r1, r6, #-2147483648
 1448 01e2 2846     		mov	r0, r5
 1449              	.LVL201:
 1450              		.loc 1 189 11 view .LVU342
 1451 01e4 FFF7FEFF 		bl	Kalman_Filter_Y
 1452              	.LVL202:
 1453              		.loc 1 189 10 view .LVU343
 1454 01e8 00F10040 		add	r0, r0, #-2147483648
 1455              		.loc 1 189 9 view .LVU344
 1456 01ec FFF7FEFF 		bl	__aeabi_f2iz
 1457              	.LVL203:
 1458 01f0 0D4B     		ldr	r3, .L35+24
 1459 01f2 1880     		strh	r0, [r3]	@ movhi
 190:Core/Src/filter.c **** 	Dog_ROL=-Kalman_Filter_X(Accel_X,Gyro_X);
 1460              		.loc 1 190 2 is_stmt 1 view .LVU345
 1461              		.loc 1 190 11 is_stmt 0 view .LVU346
 1462 01f4 5146     		mov	r1, r10
 1463 01f6 2046     		mov	r0, r4
 1464 01f8 FFF7FEFF 		bl	Kalman_Filter_X
 1465              	.LVL204:
 1466              		.loc 1 190 10 view .LVU347
 1467 01fc 00F10040 		add	r0, r0, #-2147483648
 1468              		.loc 1 190 9 view .LVU348
 1469 0200 FFF7FEFF 		bl	__aeabi_f2iz
 1470              	.LVL205:
ARM GAS  C:\Users\Mr.Zhu\AppData\Local\Temp\ccTVJEOX.s 			page 30


 1471 0204 094B     		ldr	r3, .L35+28
 1472 0206 1880     		strh	r0, [r3]	@ movhi
 191:Core/Src/filter.c **** 
 192:Core/Src/filter.c **** 	// DT_Send03(Dog_ROL,Dog_PIT,0,1);				
 193:Core/Src/filter.c **** }
 1473              		.loc 1 193 1 view .LVU349
 1474 0208 BDE8F087 		pop	{r4, r5, r6, r7, r8, r9, r10, pc}
 1475              	.LVL206:
 1476              	.L36:
 1477              		.loc 1 193 1 view .LVU350
 1478 020c AFF30080 		.align	3
 1479              	.L35:
 1480 0210 66666666 		.word	1717986918
 1481 0214 66663040 		.word	1076913766
 1482 0218 00000060 		.word	1610612736
 1483 021c FB210940 		.word	1074340347
 1484 0220 00FEFF46 		.word	1191181824
 1485 0224 00806640 		.word	1080459264
 1486 0228 00000000 		.word	.LANCHOR54
 1487 022c 00000000 		.word	.LANCHOR55
 1488              		.cfi_endproc
 1489              	.LFE71:
 1491              		.global	PP_Z
 1492              		.global	Pdot_Z
 1493              		.global	t_1_Z
 1494              		.global	t_0_Z
 1495              		.global	K_1_Z
 1496              		.global	K_0_Z
 1497              		.global	E_Z
 1498              		.global	PCt_1_Z
 1499              		.global	PCt_0_Z
 1500              		.global	Angle_err_Z
 1501              		.global	Q_bias_Z
 1502              		.global	C_0_Z
 1503              		.global	dt_Z
 1504              		.global	R_angle_Z
 1505              		.global	Q_gyro_Z
 1506              		.global	Q_angle_Z
 1507              		.global	angle_dot_Z
 1508              		.global	angle_Z
 1509              		.global	K1_Z
 1510              		.global	PP_Y
 1511              		.global	Pdot_Y
 1512              		.global	t_1_Y
 1513              		.global	t_0_Y
 1514              		.global	K_1_Y
 1515              		.global	K_0_Y
 1516              		.global	E_Y
 1517              		.global	PCt_1_Y
 1518              		.global	PCt_0_Y
 1519              		.global	Angle_err_Y
 1520              		.global	Q_bias_Y
 1521              		.global	C_0_Y
 1522              		.global	dt_Y
 1523              		.global	R_angle_Y
 1524              		.global	Q_gyro_Y
 1525              		.global	Q_angle_Y
ARM GAS  C:\Users\Mr.Zhu\AppData\Local\Temp\ccTVJEOX.s 			page 31


 1526              		.global	angle_dot_Y
 1527              		.global	angle_Y
 1528              		.global	K1_Y
 1529              		.global	PP_X
 1530              		.global	Pdot_X
 1531              		.global	t_1_X
 1532              		.global	t_0_X
 1533              		.global	K_1_X
 1534              		.global	K_0_X
 1535              		.global	E_X
 1536              		.global	PCt_1_X
 1537              		.global	PCt_0_X
 1538              		.global	Angle_err_X
 1539              		.global	Q_bias_X
 1540              		.global	C_0_X
 1541              		.global	dt_X
 1542              		.global	R_angle_X
 1543              		.global	Q_gyro_X
 1544              		.global	Q_angle_X
 1545              		.global	angle_dot_X
 1546              		.global	angle_X
 1547              		.global	K1_X
 1548              		.global	Dog_PIT
 1549              		.global	Dog_ROL
 1550              		.section	.bss.Angle_err_X,"aw",%nobits
 1551              		.align	2
 1552              		.set	.LANCHOR7,. + 0
 1555              	Angle_err_X:
 1556 0000 00000000 		.space	4
 1557              		.section	.bss.Angle_err_Y,"aw",%nobits
 1558              		.align	2
 1559              		.set	.LANCHOR25,. + 0
 1562              	Angle_err_Y:
 1563 0000 00000000 		.space	4
 1564              		.section	.bss.Angle_err_Z,"aw",%nobits
 1565              		.align	2
 1566              		.set	.LANCHOR43,. + 0
 1569              	Angle_err_Z:
 1570 0000 00000000 		.space	4
 1571              		.section	.bss.Dog_PIT,"aw",%nobits
 1572              		.align	1
 1573              		.set	.LANCHOR54,. + 0
 1576              	Dog_PIT:
 1577 0000 0000     		.space	2
 1578              		.section	.bss.Dog_ROL,"aw",%nobits
 1579              		.align	1
 1580              		.set	.LANCHOR55,. + 0
 1583              	Dog_ROL:
 1584 0000 0000     		.space	2
 1585              		.section	.bss.E_X,"aw",%nobits
 1586              		.align	2
 1587              		.set	.LANCHOR12,. + 0
 1590              	E_X:
 1591 0000 00000000 		.space	4
 1592              		.section	.bss.E_Y,"aw",%nobits
 1593              		.align	2
 1594              		.set	.LANCHOR30,. + 0
ARM GAS  C:\Users\Mr.Zhu\AppData\Local\Temp\ccTVJEOX.s 			page 32


 1597              	E_Y:
 1598 0000 00000000 		.space	4
 1599              		.section	.bss.E_Z,"aw",%nobits
 1600              		.align	2
 1601              		.set	.LANCHOR48,. + 0
 1604              	E_Z:
 1605 0000 00000000 		.space	4
 1606              		.section	.bss.K_0_X,"aw",%nobits
 1607              		.align	2
 1608              		.set	.LANCHOR13,. + 0
 1611              	K_0_X:
 1612 0000 00000000 		.space	4
 1613              		.section	.bss.K_0_Y,"aw",%nobits
 1614              		.align	2
 1615              		.set	.LANCHOR31,. + 0
 1618              	K_0_Y:
 1619 0000 00000000 		.space	4
 1620              		.section	.bss.K_0_Z,"aw",%nobits
 1621              		.align	2
 1622              		.set	.LANCHOR49,. + 0
 1625              	K_0_Z:
 1626 0000 00000000 		.space	4
 1627              		.section	.bss.K_1_X,"aw",%nobits
 1628              		.align	2
 1629              		.set	.LANCHOR14,. + 0
 1632              	K_1_X:
 1633 0000 00000000 		.space	4
 1634              		.section	.bss.K_1_Y,"aw",%nobits
 1635              		.align	2
 1636              		.set	.LANCHOR32,. + 0
 1639              	K_1_Y:
 1640 0000 00000000 		.space	4
 1641              		.section	.bss.K_1_Z,"aw",%nobits
 1642              		.align	2
 1643              		.set	.LANCHOR50,. + 0
 1646              	K_1_Z:
 1647 0000 00000000 		.space	4
 1648              		.section	.bss.PCt_0_X,"aw",%nobits
 1649              		.align	2
 1650              		.set	.LANCHOR9,. + 0
 1653              	PCt_0_X:
 1654 0000 00000000 		.space	4
 1655              		.section	.bss.PCt_0_Y,"aw",%nobits
 1656              		.align	2
 1657              		.set	.LANCHOR27,. + 0
 1660              	PCt_0_Y:
 1661 0000 00000000 		.space	4
 1662              		.section	.bss.PCt_0_Z,"aw",%nobits
 1663              		.align	2
 1664              		.set	.LANCHOR45,. + 0
 1667              	PCt_0_Z:
 1668 0000 00000000 		.space	4
 1669              		.section	.bss.PCt_1_X,"aw",%nobits
 1670              		.align	2
 1671              		.set	.LANCHOR10,. + 0
 1674              	PCt_1_X:
 1675 0000 00000000 		.space	4
ARM GAS  C:\Users\Mr.Zhu\AppData\Local\Temp\ccTVJEOX.s 			page 33


 1676              		.section	.bss.PCt_1_Y,"aw",%nobits
 1677              		.align	2
 1678              		.set	.LANCHOR28,. + 0
 1681              	PCt_1_Y:
 1682 0000 00000000 		.space	4
 1683              		.section	.bss.PCt_1_Z,"aw",%nobits
 1684              		.align	2
 1685              		.set	.LANCHOR46,. + 0
 1688              	PCt_1_Z:
 1689 0000 00000000 		.space	4
 1690              		.section	.bss.Pdot_X,"aw",%nobits
 1691              		.align	2
 1692              		.set	.LANCHOR5,. + 0
 1695              	Pdot_X:
 1696 0000 00000000 		.space	16
 1696      00000000 
 1696      00000000 
 1696      00000000 
 1697              		.section	.bss.Pdot_Y,"aw",%nobits
 1698              		.align	2
 1699              		.set	.LANCHOR23,. + 0
 1702              	Pdot_Y:
 1703 0000 00000000 		.space	16
 1703      00000000 
 1703      00000000 
 1703      00000000 
 1704              		.section	.bss.Pdot_Z,"aw",%nobits
 1705              		.align	2
 1706              		.set	.LANCHOR41,. + 0
 1709              	Pdot_Z:
 1710 0000 00000000 		.space	16
 1710      00000000 
 1710      00000000 
 1710      00000000 
 1711              		.section	.bss.Q_bias_X,"aw",%nobits
 1712              		.align	2
 1713              		.set	.LANCHOR0,. + 0
 1716              	Q_bias_X:
 1717 0000 00000000 		.space	4
 1718              		.section	.bss.Q_bias_Y,"aw",%nobits
 1719              		.align	2
 1720              		.set	.LANCHOR18,. + 0
 1723              	Q_bias_Y:
 1724 0000 00000000 		.space	4
 1725              		.section	.bss.Q_bias_Z,"aw",%nobits
 1726              		.align	2
 1727              		.set	.LANCHOR36,. + 0
 1730              	Q_bias_Z:
 1731 0000 00000000 		.space	4
 1732              		.section	.bss.angle_X,"aw",%nobits
 1733              		.align	2
 1734              		.set	.LANCHOR2,. + 0
 1737              	angle_X:
 1738 0000 00000000 		.space	4
 1739              		.section	.bss.angle_Y,"aw",%nobits
 1740              		.align	2
 1741              		.set	.LANCHOR20,. + 0
ARM GAS  C:\Users\Mr.Zhu\AppData\Local\Temp\ccTVJEOX.s 			page 34


 1744              	angle_Y:
 1745 0000 00000000 		.space	4
 1746              		.section	.bss.angle_Z,"aw",%nobits
 1747              		.align	2
 1748              		.set	.LANCHOR38,. + 0
 1751              	angle_Z:
 1752 0000 00000000 		.space	4
 1753              		.section	.bss.angle_dot_X,"aw",%nobits
 1754              		.align	2
 1755              		.set	.LANCHOR17,. + 0
 1758              	angle_dot_X:
 1759 0000 00000000 		.space	4
 1760              		.section	.bss.angle_dot_Y,"aw",%nobits
 1761              		.align	2
 1762              		.set	.LANCHOR35,. + 0
 1765              	angle_dot_Y:
 1766 0000 00000000 		.space	4
 1767              		.section	.bss.angle_dot_Z,"aw",%nobits
 1768              		.align	2
 1769              		.set	.LANCHOR53,. + 0
 1772              	angle_dot_Z:
 1773 0000 00000000 		.space	4
 1774              		.section	.bss.t_0_X,"aw",%nobits
 1775              		.align	2
 1776              		.set	.LANCHOR15,. + 0
 1779              	t_0_X:
 1780 0000 00000000 		.space	4
 1781              		.section	.bss.t_0_Y,"aw",%nobits
 1782              		.align	2
 1783              		.set	.LANCHOR33,. + 0
 1786              	t_0_Y:
 1787 0000 00000000 		.space	4
 1788              		.section	.bss.t_0_Z,"aw",%nobits
 1789              		.align	2
 1790              		.set	.LANCHOR51,. + 0
 1793              	t_0_Z:
 1794 0000 00000000 		.space	4
 1795              		.section	.bss.t_1_X,"aw",%nobits
 1796              		.align	2
 1797              		.set	.LANCHOR16,. + 0
 1800              	t_1_X:
 1801 0000 00000000 		.space	4
 1802              		.section	.bss.t_1_Y,"aw",%nobits
 1803              		.align	2
 1804              		.set	.LANCHOR34,. + 0
 1807              	t_1_Y:
 1808 0000 00000000 		.space	4
 1809              		.section	.bss.t_1_Z,"aw",%nobits
 1810              		.align	2
 1811              		.set	.LANCHOR52,. + 0
 1814              	t_1_Z:
 1815 0000 00000000 		.space	4
 1816              		.section	.data.C_0_X,"aw"
 1817              		.set	.LANCHOR8,. + 0
 1820              	C_0_X:
 1821 0000 01       		.byte	1
 1822              		.section	.data.C_0_Y,"aw"
ARM GAS  C:\Users\Mr.Zhu\AppData\Local\Temp\ccTVJEOX.s 			page 35


 1823              		.set	.LANCHOR26,. + 0
 1826              	C_0_Y:
 1827 0000 01       		.byte	1
 1828              		.section	.data.C_0_Z,"aw"
 1829              		.set	.LANCHOR44,. + 0
 1832              	C_0_Z:
 1833 0000 01       		.byte	1
 1834              		.section	.data.K1_X,"aw"
 1835              		.align	2
 1838              	K1_X:
 1839 0000 0AD7A33C 		.word	1017370378
 1840              		.section	.data.K1_Y,"aw"
 1841              		.align	2
 1844              	K1_Y:
 1845 0000 0AD7A33C 		.word	1017370378
 1846              		.section	.data.K1_Z,"aw"
 1847              		.align	2
 1850              	K1_Z:
 1851 0000 0AD7A33C 		.word	1017370378
 1852              		.section	.data.PP_X,"aw"
 1853              		.align	2
 1854              		.set	.LANCHOR3,. + 0
 1857              	PP_X:
 1858 0000 0000803F 		.word	1065353216
 1859 0004 00000000 		.word	0
 1860 0008 00000000 		.word	0
 1861 000c 0000803F 		.word	1065353216
 1862              		.section	.data.PP_Y,"aw"
 1863              		.align	2
 1864              		.set	.LANCHOR21,. + 0
 1867              	PP_Y:
 1868 0000 0000803F 		.word	1065353216
 1869 0004 00000000 		.word	0
 1870 0008 00000000 		.word	0
 1871 000c 0000803F 		.word	1065353216
 1872              		.section	.data.PP_Z,"aw"
 1873              		.align	2
 1874              		.set	.LANCHOR39,. + 0
 1877              	PP_Z:
 1878 0000 0000803F 		.word	1065353216
 1879 0004 00000000 		.word	0
 1880 0008 00000000 		.word	0
 1881 000c 0000803F 		.word	1065353216
 1882              		.section	.data.Q_angle_X,"aw"
 1883              		.align	2
 1884              		.set	.LANCHOR4,. + 0
 1887              	Q_angle_X:
 1888 0000 6F12833A 		.word	981668463
 1889              		.section	.data.Q_angle_Y,"aw"
 1890              		.align	2
 1891              		.set	.LANCHOR22,. + 0
 1894              	Q_angle_Y:
 1895 0000 6F12833A 		.word	981668463
 1896              		.section	.data.Q_angle_Z,"aw"
 1897              		.align	2
 1898              		.set	.LANCHOR40,. + 0
 1901              	Q_angle_Z:
ARM GAS  C:\Users\Mr.Zhu\AppData\Local\Temp\ccTVJEOX.s 			page 36


 1902 0000 6F12833A 		.word	981668463
 1903              		.section	.data.Q_gyro_X,"aw"
 1904              		.align	2
 1905              		.set	.LANCHOR6,. + 0
 1908              	Q_gyro_X:
 1909 0000 A69B443B 		.word	994352038
 1910              		.section	.data.Q_gyro_Y,"aw"
 1911              		.align	2
 1912              		.set	.LANCHOR24,. + 0
 1915              	Q_gyro_Y:
 1916 0000 A69B443B 		.word	994352038
 1917              		.section	.data.Q_gyro_Z,"aw"
 1918              		.align	2
 1919              		.set	.LANCHOR42,. + 0
 1922              	Q_gyro_Z:
 1923 0000 A69B443B 		.word	994352038
 1924              		.section	.data.R_angle_X,"aw"
 1925              		.align	2
 1926              		.set	.LANCHOR11,. + 0
 1929              	R_angle_X:
 1930 0000 0000003F 		.word	1056964608
 1931              		.section	.data.R_angle_Y,"aw"
 1932              		.align	2
 1933              		.set	.LANCHOR29,. + 0
 1936              	R_angle_Y:
 1937 0000 0000003F 		.word	1056964608
 1938              		.section	.data.R_angle_Z,"aw"
 1939              		.align	2
 1940              		.set	.LANCHOR47,. + 0
 1943              	R_angle_Z:
 1944 0000 0000003F 		.word	1056964608
 1945              		.section	.data.dt_X,"aw"
 1946              		.align	2
 1947              		.set	.LANCHOR1,. + 0
 1950              	dt_X:
 1951 0000 0AD7A33B 		.word	1000593162
 1952              		.section	.data.dt_Y,"aw"
 1953              		.align	2
 1954              		.set	.LANCHOR19,. + 0
 1957              	dt_Y:
 1958 0000 0AD7A33B 		.word	1000593162
 1959              		.section	.data.dt_Z,"aw"
 1960              		.align	2
 1961              		.set	.LANCHOR37,. + 0
 1964              	dt_Z:
 1965 0000 0AD7A33B 		.word	1000593162
 1966              		.text
 1967              	.Letext0:
 1968              		.file 2 "e:\\clion\\gcc-arm-none-eabi\\10 2020-q4-major\\arm-none-eabi\\include\\machine\\_default
 1969              		.file 3 "e:\\clion\\gcc-arm-none-eabi\\10 2020-q4-major\\arm-none-eabi\\include\\sys\\_stdint.h"
 1970              		.file 4 "Core/Inc/filter.h"
 1971              		.file 5 "Core/Inc/mpu6050.h"
 1972              		.file 6 "e:\\clion\\gcc-arm-none-eabi\\10 2020-q4-major\\arm-none-eabi\\include\\math.h"
ARM GAS  C:\Users\Mr.Zhu\AppData\Local\Temp\ccTVJEOX.s 			page 37

