ARM GAS  C:\Users\Mr.Zhu\AppData\Local\Temp\ccS7Rdda.s 			page 1


   1              		.cpu cortex-m3
   2              		.eabi_attribute 20, 1
   3              		.eabi_attribute 21, 1
   4              		.eabi_attribute 23, 3
   5              		.eabi_attribute 24, 1
   6              		.eabi_attribute 25, 1
   7              		.eabi_attribute 26, 1
   8              		.eabi_attribute 30, 1
   9              		.eabi_attribute 34, 1
  10              		.eabi_attribute 18, 4
  11              		.file	"mpu6050.c"
  12              		.text
  13              	.Ltext0:
  14              		.cfi_sections	.debug_frame
  15              		.section	.text.MPU_IIC_Start,"ax",%progbits
  16              		.align	1
  17              		.arch armv7-m
  18              		.syntax unified
  19              		.thumb
  20              		.thumb_func
  21              		.fpu softvfp
  23              	MPU_IIC_Start:
  24              	.LFB68:
  25              		.file 1 "Core/Src/mpu6050.c"
   1:Core/Src/mpu6050.c **** #include "mpu6050.h"
   2:Core/Src/mpu6050.c **** #include "tim.h"
   3:Core/Src/mpu6050.c **** 
   4:Core/Src/mpu6050.c **** //IO方向设置
   5:Core/Src/mpu6050.c **** #define MPU_SDA_IN()  {GPIOA->CRL&=0XFFF0FFFF;GPIOA->CRL|=8<<16;}
   6:Core/Src/mpu6050.c **** #define MPU_SDA_OUT() {GPIOA->CRL&=0XFFF0FFFF;GPIOA->CRL|=3<<16;}
   7:Core/Src/mpu6050.c **** 
   8:Core/Src/mpu6050.c **** //IO操作函数	 
   9:Core/Src/mpu6050.c **** #define MPU_IIC_SCL    PAout(5) //SCL
  10:Core/Src/mpu6050.c **** #define MPU_IIC_SDA    PAout(4) //SDA	 
  11:Core/Src/mpu6050.c **** #define MPU_READ_SDA   PAin(4)  //输入SDA 
  12:Core/Src/mpu6050.c **** 
  13:Core/Src/mpu6050.c **** /**************************实现函数********************************************
  14:Core/Src/mpu6050.c **** *函数原型:		void IIC_Start(void)
  15:Core/Src/mpu6050.c **** *功　　能:		产生IIC起始信号
  16:Core/Src/mpu6050.c **** *******************************************************************************/
  17:Core/Src/mpu6050.c **** static int MPU_IIC_Start(void) {
  26              		.loc 1 17 32 view -0
  27              		.cfi_startproc
  28              		@ args = 0, pretend = 0, frame = 0
  29              		@ frame_needed = 0, uses_anonymous_args = 0
  18:Core/Src/mpu6050.c **** 	MPU_SDA_OUT();     //sda线输出
  30              		.loc 1 18 2 view .LVU1
  31 0000 144B     		ldr	r3, .L11
  32 0002 1A68     		ldr	r2, [r3]
  33 0004 22F47022 		bic	r2, r2, #983040
  34 0008 1A60     		str	r2, [r3]
  35              		.loc 1 18 2 view .LVU2
  36 000a 1A68     		ldr	r2, [r3]
  37 000c 42F44032 		orr	r2, r2, #196608
  38 0010 1A60     		str	r2, [r3]
  39              		.loc 1 18 15 view .LVU3
  19:Core/Src/mpu6050.c **** 	MPU_IIC_SDA=1;
ARM GAS  C:\Users\Mr.Zhu\AppData\Local\Temp\ccS7Rdda.s 			page 2


  40              		.loc 1 19 2 view .LVU4
  41              		.loc 1 19 13 is_stmt 0 view .LVU5
  42 0012 114B     		ldr	r3, .L11+4
  43 0014 0122     		movs	r2, #1
  44 0016 C3F89021 		str	r2, [r3, #400]
  20:Core/Src/mpu6050.c **** 	if (!MPU_READ_SDA) return 0;	
  45              		.loc 1 20 2 is_stmt 1 view .LVU6
  46              		.loc 1 20 7 is_stmt 0 view .LVU7
  47 001a D3F81031 		ldr	r3, [r3, #272]
  48              		.loc 1 20 5 view .LVU8
  49 001e 0BB9     		cbnz	r3, .L9
  50              		.loc 1 20 28 view .LVU9
  51 0020 0020     		movs	r0, #0
  21:Core/Src/mpu6050.c **** 	MPU_IIC_SCL=1;
  22:Core/Src/mpu6050.c **** 	HAL_Delay_us(1);
  23:Core/Src/mpu6050.c ****  	MPU_IIC_SDA=0;//START:when CLK is high,DATA change form high to low 
  24:Core/Src/mpu6050.c **** 	if (MPU_READ_SDA) return 0;
  25:Core/Src/mpu6050.c **** 	HAL_Delay_us(1);
  26:Core/Src/mpu6050.c **** 	MPU_IIC_SCL=0;//钳住I2C总线，准备发送或接收数据 
  27:Core/Src/mpu6050.c **** 	return 1;
  28:Core/Src/mpu6050.c **** }
  52              		.loc 1 28 1 view .LVU10
  53 0022 7047     		bx	lr
  54              	.L9:
  17:Core/Src/mpu6050.c **** 	MPU_SDA_OUT();     //sda线输出
  55              		.loc 1 17 32 view .LVU11
  56 0024 10B5     		push	{r4, lr}
  57              	.LCFI0:
  58              		.cfi_def_cfa_offset 8
  59              		.cfi_offset 4, -8
  60              		.cfi_offset 14, -4
  21:Core/Src/mpu6050.c **** 	MPU_IIC_SCL=1;
  61              		.loc 1 21 2 is_stmt 1 view .LVU12
  21:Core/Src/mpu6050.c **** 	MPU_IIC_SCL=1;
  62              		.loc 1 21 13 is_stmt 0 view .LVU13
  63 0026 0C4C     		ldr	r4, .L11+4
  64 0028 1046     		mov	r0, r2
  65 002a C4F89421 		str	r2, [r4, #404]
  22:Core/Src/mpu6050.c ****  	MPU_IIC_SDA=0;//START:when CLK is high,DATA change form high to low 
  66              		.loc 1 22 2 is_stmt 1 view .LVU14
  67 002e FFF7FEFF 		bl	HAL_Delay_us
  68              	.LVL0:
  23:Core/Src/mpu6050.c **** 	if (MPU_READ_SDA) return 0;
  69              		.loc 1 23 3 view .LVU15
  23:Core/Src/mpu6050.c **** 	if (MPU_READ_SDA) return 0;
  70              		.loc 1 23 14 is_stmt 0 view .LVU16
  71 0032 0023     		movs	r3, #0
  72 0034 C4F89031 		str	r3, [r4, #400]
  24:Core/Src/mpu6050.c **** 	HAL_Delay_us(1);
  73              		.loc 1 24 2 is_stmt 1 view .LVU17
  24:Core/Src/mpu6050.c **** 	HAL_Delay_us(1);
  74              		.loc 1 24 6 is_stmt 0 view .LVU18
  75 0038 D4F81031 		ldr	r3, [r4, #272]
  24:Core/Src/mpu6050.c **** 	HAL_Delay_us(1);
  76              		.loc 1 24 5 view .LVU19
  77 003c 0BB1     		cbz	r3, .L10
  24:Core/Src/mpu6050.c **** 	HAL_Delay_us(1);
ARM GAS  C:\Users\Mr.Zhu\AppData\Local\Temp\ccS7Rdda.s 			page 3


  78              		.loc 1 24 27 view .LVU20
  79 003e 0020     		movs	r0, #0
  80              	.L1:
  81              		.loc 1 28 1 view .LVU21
  82 0040 10BD     		pop	{r4, pc}
  83              	.L10:
  25:Core/Src/mpu6050.c **** 	MPU_IIC_SCL=0;//钳住I2C总线，准备发送或接收数据 
  84              		.loc 1 25 2 is_stmt 1 view .LVU22
  85 0042 0120     		movs	r0, #1
  86 0044 FFF7FEFF 		bl	HAL_Delay_us
  87              	.LVL1:
  26:Core/Src/mpu6050.c **** 	return 1;
  88              		.loc 1 26 2 view .LVU23
  26:Core/Src/mpu6050.c **** 	return 1;
  89              		.loc 1 26 13 is_stmt 0 view .LVU24
  90 0048 0022     		movs	r2, #0
  91 004a C4F89421 		str	r2, [r4, #404]
  27:Core/Src/mpu6050.c **** }
  92              		.loc 1 27 2 is_stmt 1 view .LVU25
  27:Core/Src/mpu6050.c **** }
  93              		.loc 1 27 9 is_stmt 0 view .LVU26
  94 004e 0120     		movs	r0, #1
  95 0050 F6E7     		b	.L1
  96              	.L12:
  97 0052 00BF     		.align	2
  98              	.L11:
  99 0054 00080140 		.word	1073809408
 100 0058 00002142 		.word	1109458944
 101              		.cfi_endproc
 102              	.LFE68:
 104              		.section	.text.MPU_IIC_Send_Byte,"ax",%progbits
 105              		.align	1
 106              		.syntax unified
 107              		.thumb
 108              		.thumb_func
 109              		.fpu softvfp
 111              	MPU_IIC_Send_Byte:
 112              	.LVL2:
 113              	.LFB73:
  29:Core/Src/mpu6050.c **** 
  30:Core/Src/mpu6050.c **** /**************************实现函数********************************************
  31:Core/Src/mpu6050.c **** *函数原型:		void IIC_Stop(void)
  32:Core/Src/mpu6050.c **** *功　　能:	    //产生IIC停止信号
  33:Core/Src/mpu6050.c **** *******************************************************************************/	  
  34:Core/Src/mpu6050.c **** static void MPU_IIC_Stop(void) {
  35:Core/Src/mpu6050.c **** 	MPU_SDA_OUT();//sda线输出
  36:Core/Src/mpu6050.c **** 	MPU_IIC_SCL=0;
  37:Core/Src/mpu6050.c **** 	MPU_IIC_SDA=0;//STOP:when CLK is high DATA change form low to high
  38:Core/Src/mpu6050.c ****  	HAL_Delay_us(1);
  39:Core/Src/mpu6050.c **** 	MPU_IIC_SCL=1; 
  40:Core/Src/mpu6050.c **** 	MPU_IIC_SDA=1;//发送I2C总线结束信号
  41:Core/Src/mpu6050.c **** 	HAL_Delay_us(1);							   	
  42:Core/Src/mpu6050.c **** }
  43:Core/Src/mpu6050.c **** 
  44:Core/Src/mpu6050.c **** /**************************实现函数********************************************
  45:Core/Src/mpu6050.c **** *函数原型:		uint8_t IIC_Wait_Ack(void)
  46:Core/Src/mpu6050.c **** *功　　能:	    等待应答信号到来 
ARM GAS  C:\Users\Mr.Zhu\AppData\Local\Temp\ccS7Rdda.s 			page 4


  47:Core/Src/mpu6050.c **** //返回值：1，接收应答失败
  48:Core/Src/mpu6050.c **** //        0，接收应答成功
  49:Core/Src/mpu6050.c **** *******************************************************************************/
  50:Core/Src/mpu6050.c **** static int MPU_IIC_Wait_Ack(void) {
  51:Core/Src/mpu6050.c **** 	uint8_t ucErrTime = 0;
  52:Core/Src/mpu6050.c **** 	MPU_SDA_IN();      //SDA设置为输入  
  53:Core/Src/mpu6050.c **** 	MPU_IIC_SDA = 1;
  54:Core/Src/mpu6050.c **** 	HAL_Delay_us(1);	   
  55:Core/Src/mpu6050.c **** 	MPU_IIC_SCL = 1;
  56:Core/Src/mpu6050.c **** 	HAL_Delay_us(1);	 
  57:Core/Src/mpu6050.c **** 	while (MPU_READ_SDA) {
  58:Core/Src/mpu6050.c **** 		ucErrTime++;
  59:Core/Src/mpu6050.c **** 		if(ucErrTime > 50)
  60:Core/Src/mpu6050.c **** 		{
  61:Core/Src/mpu6050.c **** 			MPU_IIC_Stop();
  62:Core/Src/mpu6050.c **** 			return 0;
  63:Core/Src/mpu6050.c **** 		}
  64:Core/Src/mpu6050.c **** 	  HAL_Delay_us(1);
  65:Core/Src/mpu6050.c **** 	}
  66:Core/Src/mpu6050.c **** 	MPU_IIC_SCL = 0;//时钟输出0 	   
  67:Core/Src/mpu6050.c **** 	return 1;  
  68:Core/Src/mpu6050.c **** } 
  69:Core/Src/mpu6050.c **** 
  70:Core/Src/mpu6050.c **** /**************************实现函数********************************************
  71:Core/Src/mpu6050.c **** *函数原型:		void IIC_Ack(void)
  72:Core/Src/mpu6050.c **** *功　　能:	    产生ACK应答
  73:Core/Src/mpu6050.c **** *******************************************************************************/
  74:Core/Src/mpu6050.c **** static void MPU_IIC_Ack(void) {
  75:Core/Src/mpu6050.c **** 	MPU_IIC_SCL = 0;
  76:Core/Src/mpu6050.c **** 	MPU_SDA_OUT();
  77:Core/Src/mpu6050.c **** 	MPU_IIC_SDA = 0;
  78:Core/Src/mpu6050.c **** 	HAL_Delay_us(1);
  79:Core/Src/mpu6050.c **** 	MPU_IIC_SCL = 1;
  80:Core/Src/mpu6050.c **** 	HAL_Delay_us(1);
  81:Core/Src/mpu6050.c **** 	MPU_IIC_SCL = 0;
  82:Core/Src/mpu6050.c **** }
  83:Core/Src/mpu6050.c **** 	
  84:Core/Src/mpu6050.c **** /**************************实现函数********************************************
  85:Core/Src/mpu6050.c **** *函数原型:		void IIC_NAck(void)
  86:Core/Src/mpu6050.c **** *功　　能:	    产生NACK应答
  87:Core/Src/mpu6050.c **** *******************************************************************************/	    
  88:Core/Src/mpu6050.c **** static void MPU_IIC_NAck(void) {
  89:Core/Src/mpu6050.c **** 	MPU_IIC_SCL = 0;
  90:Core/Src/mpu6050.c **** 	MPU_SDA_OUT();
  91:Core/Src/mpu6050.c **** 	MPU_IIC_SDA = 1;
  92:Core/Src/mpu6050.c **** 	HAL_Delay_us(1);
  93:Core/Src/mpu6050.c **** 	MPU_IIC_SCL = 1;
  94:Core/Src/mpu6050.c **** 	HAL_Delay_us(1);
  95:Core/Src/mpu6050.c **** 	MPU_IIC_SCL = 0;
  96:Core/Src/mpu6050.c **** }
  97:Core/Src/mpu6050.c **** /**************************实现函数********************************************
  98:Core/Src/mpu6050.c **** *函数原型:		void IIC_Send_Byte(uint8_t txd)
  99:Core/Src/mpu6050.c **** *功　　能:	    IIC发送一个字节
 100:Core/Src/mpu6050.c **** *******************************************************************************/		  
 101:Core/Src/mpu6050.c **** static void MPU_IIC_Send_Byte(uint8_t txd) {                        
 114              		.loc 1 101 44 is_stmt 1 view -0
 115              		.cfi_startproc
ARM GAS  C:\Users\Mr.Zhu\AppData\Local\Temp\ccS7Rdda.s 			page 5


 116              		@ args = 0, pretend = 0, frame = 0
 117              		@ frame_needed = 0, uses_anonymous_args = 0
 118              		.loc 1 101 44 is_stmt 0 view .LVU28
 119 0000 F8B5     		push	{r3, r4, r5, r6, r7, lr}
 120              	.LCFI1:
 121              		.cfi_def_cfa_offset 24
 122              		.cfi_offset 3, -24
 123              		.cfi_offset 4, -20
 124              		.cfi_offset 5, -16
 125              		.cfi_offset 6, -12
 126              		.cfi_offset 7, -8
 127              		.cfi_offset 14, -4
 128 0002 0546     		mov	r5, r0
 102:Core/Src/mpu6050.c ****     uint8_t t;   
 129              		.loc 1 102 5 is_stmt 1 view .LVU29
 103:Core/Src/mpu6050.c **** 	MPU_SDA_OUT(); 	    
 130              		.loc 1 103 2 view .LVU30
 131 0004 134B     		ldr	r3, .L17
 132 0006 1A68     		ldr	r2, [r3]
 133 0008 22F47022 		bic	r2, r2, #983040
 134 000c 1A60     		str	r2, [r3]
 135              		.loc 1 103 2 view .LVU31
 136 000e 1A68     		ldr	r2, [r3]
 137 0010 42F44032 		orr	r2, r2, #196608
 138 0014 1A60     		str	r2, [r3]
 139              		.loc 1 103 15 view .LVU32
 104:Core/Src/mpu6050.c ****     MPU_IIC_SCL = 0;//拉低时钟开始数据传输
 140              		.loc 1 104 5 view .LVU33
 141              		.loc 1 104 17 is_stmt 0 view .LVU34
 142 0016 0024     		movs	r4, #0
 143 0018 0F4B     		ldr	r3, .L17+4
 144 001a C3F89441 		str	r4, [r3, #404]
 105:Core/Src/mpu6050.c ****     for (t = 0; t < 8; ++t) {              
 145              		.loc 1 105 5 is_stmt 1 view .LVU35
 146              	.LVL3:
 147              		.loc 1 105 5 is_stmt 0 view .LVU36
 148 001e 16E0     		b	.L14
 149              	.LVL4:
 150              	.L15:
 106:Core/Src/mpu6050.c ****         MPU_IIC_SDA = (txd & 0x80) >> 7;
 151              		.loc 1 106 9 is_stmt 1 discriminator 3 view .LVU37
 152              		.loc 1 106 36 is_stmt 0 discriminator 3 view .LVU38
 153 0020 EB09     		lsrs	r3, r5, #7
 154              		.loc 1 106 21 discriminator 3 view .LVU39
 155 0022 0D4F     		ldr	r7, .L17+4
 156 0024 C7F89031 		str	r3, [r7, #400]
 107:Core/Src/mpu6050.c ****         txd <<= 1; 	  
 157              		.loc 1 107 9 is_stmt 1 discriminator 3 view .LVU40
 158              		.loc 1 107 13 is_stmt 0 discriminator 3 view .LVU41
 159 0028 6D00     		lsls	r5, r5, #1
 160              	.LVL5:
 161              		.loc 1 107 13 discriminator 3 view .LVU42
 162 002a EDB2     		uxtb	r5, r5
 163              	.LVL6:
 108:Core/Src/mpu6050.c **** 		HAL_Delay_us(1);   
 164              		.loc 1 108 3 is_stmt 1 discriminator 3 view .LVU43
 165 002c 0120     		movs	r0, #1
ARM GAS  C:\Users\Mr.Zhu\AppData\Local\Temp\ccS7Rdda.s 			page 6


 166 002e FFF7FEFF 		bl	HAL_Delay_us
 167              	.LVL7:
 109:Core/Src/mpu6050.c **** 		MPU_IIC_SCL = 1;
 168              		.loc 1 109 3 discriminator 3 view .LVU44
 169              		.loc 1 109 15 is_stmt 0 discriminator 3 view .LVU45
 170 0032 0126     		movs	r6, #1
 171 0034 C7F89461 		str	r6, [r7, #404]
 110:Core/Src/mpu6050.c **** 		HAL_Delay_us(1); 
 172              		.loc 1 110 3 is_stmt 1 discriminator 3 view .LVU46
 173 0038 3046     		mov	r0, r6
 174 003a FFF7FEFF 		bl	HAL_Delay_us
 175              	.LVL8:
 111:Core/Src/mpu6050.c **** 		MPU_IIC_SCL = 0;	
 176              		.loc 1 111 3 discriminator 3 view .LVU47
 177              		.loc 1 111 15 is_stmt 0 discriminator 3 view .LVU48
 178 003e 0023     		movs	r3, #0
 179 0040 C7F89431 		str	r3, [r7, #404]
 112:Core/Src/mpu6050.c **** 		HAL_Delay_us(1);
 180              		.loc 1 112 3 is_stmt 1 discriminator 3 view .LVU49
 181 0044 3046     		mov	r0, r6
 182 0046 FFF7FEFF 		bl	HAL_Delay_us
 183              	.LVL9:
 105:Core/Src/mpu6050.c ****         MPU_IIC_SDA = (txd & 0x80) >> 7;
 184              		.loc 1 105 24 discriminator 3 view .LVU50
 185 004a 3444     		add	r4, r4, r6
 186              	.LVL10:
 105:Core/Src/mpu6050.c ****         MPU_IIC_SDA = (txd & 0x80) >> 7;
 187              		.loc 1 105 24 is_stmt 0 discriminator 3 view .LVU51
 188 004c E4B2     		uxtb	r4, r4
 189              	.LVL11:
 190              	.L14:
 105:Core/Src/mpu6050.c ****         MPU_IIC_SDA = (txd & 0x80) >> 7;
 191              		.loc 1 105 17 is_stmt 1 discriminator 1 view .LVU52
 105:Core/Src/mpu6050.c ****         MPU_IIC_SDA = (txd & 0x80) >> 7;
 192              		.loc 1 105 5 is_stmt 0 discriminator 1 view .LVU53
 193 004e 072C     		cmp	r4, #7
 194 0050 E6D9     		bls	.L15
 113:Core/Src/mpu6050.c ****     }	 
 114:Core/Src/mpu6050.c **** } 	 
 195              		.loc 1 114 1 view .LVU54
 196 0052 F8BD     		pop	{r3, r4, r5, r6, r7, pc}
 197              	.LVL12:
 198              	.L18:
 199              		.loc 1 114 1 view .LVU55
 200              		.align	2
 201              	.L17:
 202 0054 00080140 		.word	1073809408
 203 0058 00002142 		.word	1109458944
 204              		.cfi_endproc
 205              	.LFE73:
 207              		.section	.text.MPU_IIC_Ack,"ax",%progbits
 208              		.align	1
 209              		.syntax unified
 210              		.thumb
 211              		.thumb_func
 212              		.fpu softvfp
 214              	MPU_IIC_Ack:
ARM GAS  C:\Users\Mr.Zhu\AppData\Local\Temp\ccS7Rdda.s 			page 7


 215              	.LFB71:
  74:Core/Src/mpu6050.c **** 	MPU_IIC_SCL = 0;
 216              		.loc 1 74 31 is_stmt 1 view -0
 217              		.cfi_startproc
 218              		@ args = 0, pretend = 0, frame = 0
 219              		@ frame_needed = 0, uses_anonymous_args = 0
 220 0000 38B5     		push	{r3, r4, r5, lr}
 221              	.LCFI2:
 222              		.cfi_def_cfa_offset 16
 223              		.cfi_offset 3, -16
 224              		.cfi_offset 4, -12
 225              		.cfi_offset 5, -8
 226              		.cfi_offset 14, -4
  75:Core/Src/mpu6050.c **** 	MPU_SDA_OUT();
 227              		.loc 1 75 2 view .LVU57
  75:Core/Src/mpu6050.c **** 	MPU_SDA_OUT();
 228              		.loc 1 75 14 is_stmt 0 view .LVU58
 229 0002 0D4C     		ldr	r4, .L21
 230 0004 0025     		movs	r5, #0
 231 0006 C4F89451 		str	r5, [r4, #404]
  76:Core/Src/mpu6050.c **** 	MPU_IIC_SDA = 0;
 232              		.loc 1 76 2 is_stmt 1 view .LVU59
 233 000a 0C4B     		ldr	r3, .L21+4
 234 000c 1A68     		ldr	r2, [r3]
 235 000e 22F47022 		bic	r2, r2, #983040
 236 0012 1A60     		str	r2, [r3]
  76:Core/Src/mpu6050.c **** 	MPU_IIC_SDA = 0;
 237              		.loc 1 76 2 view .LVU60
 238 0014 1A68     		ldr	r2, [r3]
 239 0016 42F44032 		orr	r2, r2, #196608
 240 001a 1A60     		str	r2, [r3]
  76:Core/Src/mpu6050.c **** 	MPU_IIC_SDA = 0;
 241              		.loc 1 76 15 view .LVU61
  77:Core/Src/mpu6050.c **** 	HAL_Delay_us(1);
 242              		.loc 1 77 2 view .LVU62
  77:Core/Src/mpu6050.c **** 	HAL_Delay_us(1);
 243              		.loc 1 77 14 is_stmt 0 view .LVU63
 244 001c C4F89051 		str	r5, [r4, #400]
  78:Core/Src/mpu6050.c **** 	MPU_IIC_SCL = 1;
 245              		.loc 1 78 2 is_stmt 1 view .LVU64
 246 0020 0120     		movs	r0, #1
 247 0022 FFF7FEFF 		bl	HAL_Delay_us
 248              	.LVL13:
  79:Core/Src/mpu6050.c **** 	HAL_Delay_us(1);
 249              		.loc 1 79 2 view .LVU65
  79:Core/Src/mpu6050.c **** 	HAL_Delay_us(1);
 250              		.loc 1 79 14 is_stmt 0 view .LVU66
 251 0026 0120     		movs	r0, #1
 252 0028 C4F89401 		str	r0, [r4, #404]
  80:Core/Src/mpu6050.c **** 	MPU_IIC_SCL = 0;
 253              		.loc 1 80 2 is_stmt 1 view .LVU67
 254 002c FFF7FEFF 		bl	HAL_Delay_us
 255              	.LVL14:
  81:Core/Src/mpu6050.c **** }
 256              		.loc 1 81 2 view .LVU68
  81:Core/Src/mpu6050.c **** }
 257              		.loc 1 81 14 is_stmt 0 view .LVU69
ARM GAS  C:\Users\Mr.Zhu\AppData\Local\Temp\ccS7Rdda.s 			page 8


 258 0030 C4F89451 		str	r5, [r4, #404]
  82:Core/Src/mpu6050.c **** 	
 259              		.loc 1 82 1 view .LVU70
 260 0034 38BD     		pop	{r3, r4, r5, pc}
 261              	.L22:
 262 0036 00BF     		.align	2
 263              	.L21:
 264 0038 00002142 		.word	1109458944
 265 003c 00080140 		.word	1073809408
 266              		.cfi_endproc
 267              	.LFE71:
 269              		.section	.text.MPU_IIC_NAck,"ax",%progbits
 270              		.align	1
 271              		.syntax unified
 272              		.thumb
 273              		.thumb_func
 274              		.fpu softvfp
 276              	MPU_IIC_NAck:
 277              	.LFB72:
  88:Core/Src/mpu6050.c **** 	MPU_IIC_SCL = 0;
 278              		.loc 1 88 32 is_stmt 1 view -0
 279              		.cfi_startproc
 280              		@ args = 0, pretend = 0, frame = 0
 281              		@ frame_needed = 0, uses_anonymous_args = 0
 282 0000 70B5     		push	{r4, r5, r6, lr}
 283              	.LCFI3:
 284              		.cfi_def_cfa_offset 16
 285              		.cfi_offset 4, -16
 286              		.cfi_offset 5, -12
 287              		.cfi_offset 6, -8
 288              		.cfi_offset 14, -4
  89:Core/Src/mpu6050.c **** 	MPU_SDA_OUT();
 289              		.loc 1 89 2 view .LVU72
  89:Core/Src/mpu6050.c **** 	MPU_SDA_OUT();
 290              		.loc 1 89 14 is_stmt 0 view .LVU73
 291 0002 0D4C     		ldr	r4, .L25
 292 0004 0026     		movs	r6, #0
 293 0006 C4F89461 		str	r6, [r4, #404]
  90:Core/Src/mpu6050.c **** 	MPU_IIC_SDA = 1;
 294              		.loc 1 90 2 is_stmt 1 view .LVU74
 295 000a 0C4B     		ldr	r3, .L25+4
 296 000c 1A68     		ldr	r2, [r3]
 297 000e 22F47022 		bic	r2, r2, #983040
 298 0012 1A60     		str	r2, [r3]
  90:Core/Src/mpu6050.c **** 	MPU_IIC_SDA = 1;
 299              		.loc 1 90 2 view .LVU75
 300 0014 1A68     		ldr	r2, [r3]
 301 0016 42F44032 		orr	r2, r2, #196608
 302 001a 1A60     		str	r2, [r3]
  90:Core/Src/mpu6050.c **** 	MPU_IIC_SDA = 1;
 303              		.loc 1 90 15 view .LVU76
  91:Core/Src/mpu6050.c **** 	HAL_Delay_us(1);
 304              		.loc 1 91 2 view .LVU77
  91:Core/Src/mpu6050.c **** 	HAL_Delay_us(1);
 305              		.loc 1 91 14 is_stmt 0 view .LVU78
 306 001c 0125     		movs	r5, #1
 307 001e C4F89051 		str	r5, [r4, #400]
ARM GAS  C:\Users\Mr.Zhu\AppData\Local\Temp\ccS7Rdda.s 			page 9


  92:Core/Src/mpu6050.c **** 	MPU_IIC_SCL = 1;
 308              		.loc 1 92 2 is_stmt 1 view .LVU79
 309 0022 2846     		mov	r0, r5
 310 0024 FFF7FEFF 		bl	HAL_Delay_us
 311              	.LVL15:
  93:Core/Src/mpu6050.c **** 	HAL_Delay_us(1);
 312              		.loc 1 93 2 view .LVU80
  93:Core/Src/mpu6050.c **** 	HAL_Delay_us(1);
 313              		.loc 1 93 14 is_stmt 0 view .LVU81
 314 0028 C4F89451 		str	r5, [r4, #404]
  94:Core/Src/mpu6050.c **** 	MPU_IIC_SCL = 0;
 315              		.loc 1 94 2 is_stmt 1 view .LVU82
 316 002c 2846     		mov	r0, r5
 317 002e FFF7FEFF 		bl	HAL_Delay_us
 318              	.LVL16:
  95:Core/Src/mpu6050.c **** }
 319              		.loc 1 95 2 view .LVU83
  95:Core/Src/mpu6050.c **** }
 320              		.loc 1 95 14 is_stmt 0 view .LVU84
 321 0032 C4F89461 		str	r6, [r4, #404]
  96:Core/Src/mpu6050.c **** /**************************实现函数********************************************
 322              		.loc 1 96 1 view .LVU85
 323 0036 70BD     		pop	{r4, r5, r6, pc}
 324              	.L26:
 325              		.align	2
 326              	.L25:
 327 0038 00002142 		.word	1109458944
 328 003c 00080140 		.word	1073809408
 329              		.cfi_endproc
 330              	.LFE72:
 332              		.section	.text.MPU_IIC_Read_Byte,"ax",%progbits
 333              		.align	1
 334              		.syntax unified
 335              		.thumb
 336              		.thumb_func
 337              		.fpu softvfp
 339              	MPU_IIC_Read_Byte:
 340              	.LVL17:
 341              	.LFB74:
 115:Core/Src/mpu6050.c **** 
 116:Core/Src/mpu6050.c **** /**************************实现函数********************************************
 117:Core/Src/mpu6050.c **** *函数原型:		uint8_t IIC_Read_Byte(unsigned char ack)
 118:Core/Src/mpu6050.c **** *功　　能:	    //读1个字节，ack=1时，发送ACK，ack=0，发送nACK 
 119:Core/Src/mpu6050.c **** *******************************************************************************/  
 120:Core/Src/mpu6050.c **** static uint8_t MPU_IIC_Read_Byte(unsigned char ack) {
 342              		.loc 1 120 53 is_stmt 1 view -0
 343              		.cfi_startproc
 344              		@ args = 0, pretend = 0, frame = 0
 345              		@ frame_needed = 0, uses_anonymous_args = 0
 346              		.loc 1 120 53 is_stmt 0 view .LVU87
 347 0000 F8B5     		push	{r3, r4, r5, r6, r7, lr}
 348              	.LCFI4:
 349              		.cfi_def_cfa_offset 24
 350              		.cfi_offset 3, -24
 351              		.cfi_offset 4, -20
 352              		.cfi_offset 5, -16
 353              		.cfi_offset 6, -12
ARM GAS  C:\Users\Mr.Zhu\AppData\Local\Temp\ccS7Rdda.s 			page 10


 354              		.cfi_offset 7, -8
 355              		.cfi_offset 14, -4
 356 0002 0746     		mov	r7, r0
 121:Core/Src/mpu6050.c **** 	unsigned char i, receive = 0;
 357              		.loc 1 121 2 is_stmt 1 view .LVU88
 358              	.LVL18:
 122:Core/Src/mpu6050.c **** 	MPU_SDA_IN();//SDA设置为输入
 359              		.loc 1 122 2 view .LVU89
 360 0004 164B     		ldr	r3, .L35
 361 0006 1A68     		ldr	r2, [r3]
 362 0008 22F47022 		bic	r2, r2, #983040
 363 000c 1A60     		str	r2, [r3]
 364              		.loc 1 122 2 view .LVU90
 365 000e 1A68     		ldr	r2, [r3]
 366 0010 42F40022 		orr	r2, r2, #524288
 367 0014 1A60     		str	r2, [r3]
 368              		.loc 1 122 14 view .LVU91
 123:Core/Src/mpu6050.c ****     for (i = 0; i < 8; ++i) {
 369              		.loc 1 123 5 view .LVU92
 370              	.LVL19:
 121:Core/Src/mpu6050.c **** 	unsigned char i, receive = 0;
 371              		.loc 1 121 19 is_stmt 0 view .LVU93
 372 0016 0024     		movs	r4, #0
 373              		.loc 1 123 12 view .LVU94
 374 0018 2546     		mov	r5, r4
 375              		.loc 1 123 5 view .LVU95
 376 001a 04E0     		b	.L28
 377              	.LVL20:
 378              	.L29:
 124:Core/Src/mpu6050.c ****         MPU_IIC_SCL = 0; 
 125:Core/Src/mpu6050.c ****         HAL_Delay_us(2);
 126:Core/Src/mpu6050.c **** 		MPU_IIC_SCL = 1;
 127:Core/Src/mpu6050.c ****         receive <<= 1;
 128:Core/Src/mpu6050.c ****         if(MPU_READ_SDA) receive++;   
 129:Core/Src/mpu6050.c **** 		HAL_Delay_us(2); 
 379              		.loc 1 129 3 is_stmt 1 discriminator 2 view .LVU96
 380 001c 0220     		movs	r0, #2
 381 001e FFF7FEFF 		bl	HAL_Delay_us
 382              	.LVL21:
 123:Core/Src/mpu6050.c ****     for (i = 0; i < 8; ++i) {
 383              		.loc 1 123 24 discriminator 2 view .LVU97
 384 0022 0135     		adds	r5, r5, #1
 385              	.LVL22:
 123:Core/Src/mpu6050.c ****     for (i = 0; i < 8; ++i) {
 386              		.loc 1 123 24 is_stmt 0 discriminator 2 view .LVU98
 387 0024 EDB2     		uxtb	r5, r5
 388              	.LVL23:
 389              	.L28:
 123:Core/Src/mpu6050.c ****     for (i = 0; i < 8; ++i) {
 390              		.loc 1 123 17 is_stmt 1 discriminator 1 view .LVU99
 123:Core/Src/mpu6050.c ****     for (i = 0; i < 8; ++i) {
 391              		.loc 1 123 5 is_stmt 0 discriminator 1 view .LVU100
 392 0026 072D     		cmp	r5, #7
 393 0028 12D8     		bhi	.L34
 124:Core/Src/mpu6050.c ****         MPU_IIC_SCL = 0; 
 394              		.loc 1 124 9 is_stmt 1 view .LVU101
 124:Core/Src/mpu6050.c ****         MPU_IIC_SCL = 0; 
ARM GAS  C:\Users\Mr.Zhu\AppData\Local\Temp\ccS7Rdda.s 			page 11


 395              		.loc 1 124 21 is_stmt 0 view .LVU102
 396 002a 0E4E     		ldr	r6, .L35+4
 397 002c 0023     		movs	r3, #0
 398 002e C6F89431 		str	r3, [r6, #404]
 125:Core/Src/mpu6050.c **** 		MPU_IIC_SCL = 1;
 399              		.loc 1 125 9 is_stmt 1 view .LVU103
 400 0032 0220     		movs	r0, #2
 401 0034 FFF7FEFF 		bl	HAL_Delay_us
 402              	.LVL24:
 126:Core/Src/mpu6050.c ****         receive <<= 1;
 403              		.loc 1 126 3 view .LVU104
 126:Core/Src/mpu6050.c ****         receive <<= 1;
 404              		.loc 1 126 15 is_stmt 0 view .LVU105
 405 0038 0123     		movs	r3, #1
 406 003a C6F89431 		str	r3, [r6, #404]
 127:Core/Src/mpu6050.c ****         if(MPU_READ_SDA) receive++;   
 407              		.loc 1 127 9 is_stmt 1 view .LVU106
 127:Core/Src/mpu6050.c ****         if(MPU_READ_SDA) receive++;   
 408              		.loc 1 127 17 is_stmt 0 view .LVU107
 409 003e 9C40     		lsls	r4, r4, r3
 410              	.LVL25:
 127:Core/Src/mpu6050.c ****         if(MPU_READ_SDA) receive++;   
 411              		.loc 1 127 17 view .LVU108
 412 0040 E4B2     		uxtb	r4, r4
 413              	.LVL26:
 128:Core/Src/mpu6050.c **** 		HAL_Delay_us(2); 
 414              		.loc 1 128 9 is_stmt 1 view .LVU109
 128:Core/Src/mpu6050.c **** 		HAL_Delay_us(2); 
 415              		.loc 1 128 12 is_stmt 0 view .LVU110
 416 0042 D6F81031 		ldr	r3, [r6, #272]
 128:Core/Src/mpu6050.c **** 		HAL_Delay_us(2); 
 417              		.loc 1 128 11 view .LVU111
 418 0046 002B     		cmp	r3, #0
 419 0048 E8D0     		beq	.L29
 128:Core/Src/mpu6050.c **** 		HAL_Delay_us(2); 
 420              		.loc 1 128 26 is_stmt 1 discriminator 1 view .LVU112
 128:Core/Src/mpu6050.c **** 		HAL_Delay_us(2); 
 421              		.loc 1 128 33 is_stmt 0 discriminator 1 view .LVU113
 422 004a 0134     		adds	r4, r4, #1
 423              	.LVL27:
 128:Core/Src/mpu6050.c **** 		HAL_Delay_us(2); 
 424              		.loc 1 128 33 discriminator 1 view .LVU114
 425 004c E4B2     		uxtb	r4, r4
 426              	.LVL28:
 128:Core/Src/mpu6050.c **** 		HAL_Delay_us(2); 
 427              		.loc 1 128 33 discriminator 1 view .LVU115
 428 004e E5E7     		b	.L29
 429              	.L34:
 130:Core/Src/mpu6050.c ****     }					 
 131:Core/Src/mpu6050.c ****     if (ack) MPU_IIC_Ack(); //发送ACK 
 430              		.loc 1 131 5 is_stmt 1 view .LVU116
 431              		.loc 1 131 8 is_stmt 0 view .LVU117
 432 0050 1FB1     		cbz	r7, .L31
 433              		.loc 1 131 14 is_stmt 1 discriminator 1 view .LVU118
 434 0052 FFF7FEFF 		bl	MPU_IIC_Ack
 435              	.LVL29:
 436              	.L32:
ARM GAS  C:\Users\Mr.Zhu\AppData\Local\Temp\ccS7Rdda.s 			page 12


 132:Core/Src/mpu6050.c ****     else MPU_IIC_NAck();//发送nACK  
 133:Core/Src/mpu6050.c ****     return receive;
 437              		.loc 1 133 5 view .LVU119
 134:Core/Src/mpu6050.c **** }
 438              		.loc 1 134 1 is_stmt 0 view .LVU120
 439 0056 2046     		mov	r0, r4
 440 0058 F8BD     		pop	{r3, r4, r5, r6, r7, pc}
 441              	.LVL30:
 442              	.L31:
 132:Core/Src/mpu6050.c ****     else MPU_IIC_NAck();//发送nACK  
 443              		.loc 1 132 10 is_stmt 1 view .LVU121
 444 005a FFF7FEFF 		bl	MPU_IIC_NAck
 445              	.LVL31:
 446 005e FAE7     		b	.L32
 447              	.L36:
 448              		.align	2
 449              	.L35:
 450 0060 00080140 		.word	1073809408
 451 0064 00002142 		.word	1109458944
 452              		.cfi_endproc
 453              	.LFE74:
 455              		.section	.text.MPU_IIC_Stop,"ax",%progbits
 456              		.align	1
 457              		.syntax unified
 458              		.thumb
 459              		.thumb_func
 460              		.fpu softvfp
 462              	MPU_IIC_Stop:
 463              	.LFB69:
  34:Core/Src/mpu6050.c **** 	MPU_SDA_OUT();//sda线输出
 464              		.loc 1 34 32 view -0
 465              		.cfi_startproc
 466              		@ args = 0, pretend = 0, frame = 0
 467              		@ frame_needed = 0, uses_anonymous_args = 0
 468 0000 10B5     		push	{r4, lr}
 469              	.LCFI5:
 470              		.cfi_def_cfa_offset 8
 471              		.cfi_offset 4, -8
 472              		.cfi_offset 14, -4
  35:Core/Src/mpu6050.c **** 	MPU_IIC_SCL=0;
 473              		.loc 1 35 2 view .LVU123
 474 0002 0D4B     		ldr	r3, .L39
 475 0004 1A68     		ldr	r2, [r3]
 476 0006 22F47022 		bic	r2, r2, #983040
 477 000a 1A60     		str	r2, [r3]
  35:Core/Src/mpu6050.c **** 	MPU_IIC_SCL=0;
 478              		.loc 1 35 2 view .LVU124
 479 000c 1A68     		ldr	r2, [r3]
 480 000e 42F44032 		orr	r2, r2, #196608
 481 0012 1A60     		str	r2, [r3]
  35:Core/Src/mpu6050.c **** 	MPU_IIC_SCL=0;
 482              		.loc 1 35 15 view .LVU125
  36:Core/Src/mpu6050.c **** 	MPU_IIC_SDA=0;//STOP:when CLK is high DATA change form low to high
 483              		.loc 1 36 2 view .LVU126
  36:Core/Src/mpu6050.c **** 	MPU_IIC_SDA=0;//STOP:when CLK is high DATA change form low to high
 484              		.loc 1 36 13 is_stmt 0 view .LVU127
 485 0014 094C     		ldr	r4, .L39+4
ARM GAS  C:\Users\Mr.Zhu\AppData\Local\Temp\ccS7Rdda.s 			page 13


 486 0016 0023     		movs	r3, #0
 487 0018 C4F89431 		str	r3, [r4, #404]
  37:Core/Src/mpu6050.c ****  	HAL_Delay_us(1);
 488              		.loc 1 37 2 is_stmt 1 view .LVU128
  37:Core/Src/mpu6050.c ****  	HAL_Delay_us(1);
 489              		.loc 1 37 13 is_stmt 0 view .LVU129
 490 001c C4F89031 		str	r3, [r4, #400]
  38:Core/Src/mpu6050.c **** 	MPU_IIC_SCL=1; 
 491              		.loc 1 38 3 is_stmt 1 view .LVU130
 492 0020 0120     		movs	r0, #1
 493 0022 FFF7FEFF 		bl	HAL_Delay_us
 494              	.LVL32:
  39:Core/Src/mpu6050.c **** 	MPU_IIC_SDA=1;//发送I2C总线结束信号
 495              		.loc 1 39 2 view .LVU131
  39:Core/Src/mpu6050.c **** 	MPU_IIC_SDA=1;//发送I2C总线结束信号
 496              		.loc 1 39 13 is_stmt 0 view .LVU132
 497 0026 0120     		movs	r0, #1
 498 0028 C4F89401 		str	r0, [r4, #404]
  40:Core/Src/mpu6050.c **** 	HAL_Delay_us(1);							   	
 499              		.loc 1 40 2 is_stmt 1 view .LVU133
  40:Core/Src/mpu6050.c **** 	HAL_Delay_us(1);							   	
 500              		.loc 1 40 13 is_stmt 0 view .LVU134
 501 002c C4F89001 		str	r0, [r4, #400]
  41:Core/Src/mpu6050.c **** }
 502              		.loc 1 41 2 is_stmt 1 view .LVU135
 503 0030 FFF7FEFF 		bl	HAL_Delay_us
 504              	.LVL33:
  42:Core/Src/mpu6050.c **** 
 505              		.loc 1 42 1 is_stmt 0 view .LVU136
 506 0034 10BD     		pop	{r4, pc}
 507              	.L40:
 508 0036 00BF     		.align	2
 509              	.L39:
 510 0038 00080140 		.word	1073809408
 511 003c 00002142 		.word	1109458944
 512              		.cfi_endproc
 513              	.LFE69:
 515              		.section	.text.MPU_IIC_Wait_Ack,"ax",%progbits
 516              		.align	1
 517              		.syntax unified
 518              		.thumb
 519              		.thumb_func
 520              		.fpu softvfp
 522              	MPU_IIC_Wait_Ack:
 523              	.LFB70:
  50:Core/Src/mpu6050.c **** 	uint8_t ucErrTime = 0;
 524              		.loc 1 50 35 is_stmt 1 view -0
 525              		.cfi_startproc
 526              		@ args = 0, pretend = 0, frame = 0
 527              		@ frame_needed = 0, uses_anonymous_args = 0
 528 0000 38B5     		push	{r3, r4, r5, lr}
 529              	.LCFI6:
 530              		.cfi_def_cfa_offset 16
 531              		.cfi_offset 3, -16
 532              		.cfi_offset 4, -12
 533              		.cfi_offset 5, -8
 534              		.cfi_offset 14, -4
ARM GAS  C:\Users\Mr.Zhu\AppData\Local\Temp\ccS7Rdda.s 			page 14


  51:Core/Src/mpu6050.c **** 	MPU_SDA_IN();      //SDA设置为输入  
 535              		.loc 1 51 2 view .LVU138
 536              	.LVL34:
  52:Core/Src/mpu6050.c **** 	MPU_IIC_SDA = 1;
 537              		.loc 1 52 2 view .LVU139
 538 0002 164B     		ldr	r3, .L48
 539 0004 1A68     		ldr	r2, [r3]
 540 0006 22F47022 		bic	r2, r2, #983040
 541 000a 1A60     		str	r2, [r3]
  52:Core/Src/mpu6050.c **** 	MPU_IIC_SDA = 1;
 542              		.loc 1 52 2 view .LVU140
 543 000c 1A68     		ldr	r2, [r3]
 544 000e 42F40022 		orr	r2, r2, #524288
 545 0012 1A60     		str	r2, [r3]
  52:Core/Src/mpu6050.c **** 	MPU_IIC_SDA = 1;
 546              		.loc 1 52 14 view .LVU141
  53:Core/Src/mpu6050.c **** 	HAL_Delay_us(1);	   
 547              		.loc 1 53 2 view .LVU142
  53:Core/Src/mpu6050.c **** 	HAL_Delay_us(1);	   
 548              		.loc 1 53 14 is_stmt 0 view .LVU143
 549 0014 124D     		ldr	r5, .L48+4
 550 0016 0124     		movs	r4, #1
 551 0018 C5F89041 		str	r4, [r5, #400]
  54:Core/Src/mpu6050.c **** 	MPU_IIC_SCL = 1;
 552              		.loc 1 54 2 is_stmt 1 view .LVU144
 553 001c 2046     		mov	r0, r4
 554 001e FFF7FEFF 		bl	HAL_Delay_us
 555              	.LVL35:
  55:Core/Src/mpu6050.c **** 	HAL_Delay_us(1);	 
 556              		.loc 1 55 2 view .LVU145
  55:Core/Src/mpu6050.c **** 	HAL_Delay_us(1);	 
 557              		.loc 1 55 14 is_stmt 0 view .LVU146
 558 0022 C5F89441 		str	r4, [r5, #404]
  56:Core/Src/mpu6050.c **** 	while (MPU_READ_SDA) {
 559              		.loc 1 56 2 is_stmt 1 view .LVU147
 560 0026 2046     		mov	r0, r4
 561 0028 FFF7FEFF 		bl	HAL_Delay_us
 562              	.LVL36:
  57:Core/Src/mpu6050.c **** 		ucErrTime++;
 563              		.loc 1 57 2 view .LVU148
  51:Core/Src/mpu6050.c **** 	MPU_SDA_IN();      //SDA设置为输入  
 564              		.loc 1 51 10 is_stmt 0 view .LVU149
 565 002c 0024     		movs	r4, #0
  57:Core/Src/mpu6050.c **** 		ucErrTime++;
 566              		.loc 1 57 8 view .LVU150
 567 002e 02E0     		b	.L42
 568              	.LVL37:
 569              	.L43:
  64:Core/Src/mpu6050.c **** 	}
 570              		.loc 1 64 4 is_stmt 1 view .LVU151
 571 0030 0120     		movs	r0, #1
 572 0032 FFF7FEFF 		bl	HAL_Delay_us
 573              	.LVL38:
 574              	.L42:
  57:Core/Src/mpu6050.c **** 		ucErrTime++;
 575              		.loc 1 57 8 view .LVU152
  57:Core/Src/mpu6050.c **** 		ucErrTime++;
ARM GAS  C:\Users\Mr.Zhu\AppData\Local\Temp\ccS7Rdda.s 			page 15


 576              		.loc 1 57 9 is_stmt 0 view .LVU153
 577 0036 0A4B     		ldr	r3, .L48+4
 578 0038 D3F81031 		ldr	r3, [r3, #272]
  57:Core/Src/mpu6050.c **** 		ucErrTime++;
 579              		.loc 1 57 8 view .LVU154
 580 003c 3BB1     		cbz	r3, .L47
  58:Core/Src/mpu6050.c **** 		if(ucErrTime > 50)
 581              		.loc 1 58 3 is_stmt 1 view .LVU155
  58:Core/Src/mpu6050.c **** 		if(ucErrTime > 50)
 582              		.loc 1 58 12 is_stmt 0 view .LVU156
 583 003e 0134     		adds	r4, r4, #1
 584              	.LVL39:
  58:Core/Src/mpu6050.c **** 		if(ucErrTime > 50)
 585              		.loc 1 58 12 view .LVU157
 586 0040 E4B2     		uxtb	r4, r4
 587              	.LVL40:
  59:Core/Src/mpu6050.c **** 		{
 588              		.loc 1 59 3 is_stmt 1 view .LVU158
  59:Core/Src/mpu6050.c **** 		{
 589              		.loc 1 59 5 is_stmt 0 view .LVU159
 590 0042 322C     		cmp	r4, #50
 591 0044 F4D9     		bls	.L43
  61:Core/Src/mpu6050.c **** 			return 0;
 592              		.loc 1 61 4 is_stmt 1 view .LVU160
 593 0046 FFF7FEFF 		bl	MPU_IIC_Stop
 594              	.LVL41:
  62:Core/Src/mpu6050.c **** 		}
 595              		.loc 1 62 4 view .LVU161
  62:Core/Src/mpu6050.c **** 		}
 596              		.loc 1 62 11 is_stmt 0 view .LVU162
 597 004a 0020     		movs	r0, #0
 598 004c 04E0     		b	.L41
 599              	.L47:
  66:Core/Src/mpu6050.c **** 	return 1;  
 600              		.loc 1 66 2 is_stmt 1 view .LVU163
  66:Core/Src/mpu6050.c **** 	return 1;  
 601              		.loc 1 66 14 is_stmt 0 view .LVU164
 602 004e 044B     		ldr	r3, .L48+4
 603 0050 0022     		movs	r2, #0
 604 0052 C3F89421 		str	r2, [r3, #404]
  67:Core/Src/mpu6050.c **** } 
 605              		.loc 1 67 2 is_stmt 1 view .LVU165
  67:Core/Src/mpu6050.c **** } 
 606              		.loc 1 67 9 is_stmt 0 view .LVU166
 607 0056 0120     		movs	r0, #1
 608              	.L41:
  68:Core/Src/mpu6050.c **** 
 609              		.loc 1 68 1 view .LVU167
 610 0058 38BD     		pop	{r3, r4, r5, pc}
 611              	.LVL42:
 612              	.L49:
  68:Core/Src/mpu6050.c **** 
 613              		.loc 1 68 1 view .LVU168
 614 005a 00BF     		.align	2
 615              	.L48:
 616 005c 00080140 		.word	1073809408
 617 0060 00002142 		.word	1109458944
ARM GAS  C:\Users\Mr.Zhu\AppData\Local\Temp\ccS7Rdda.s 			page 16


 618              		.cfi_endproc
 619              	.LFE70:
 621              		.section	.text.MPU_IICreadBytes,"ax",%progbits
 622              		.align	1
 623              		.syntax unified
 624              		.thumb
 625              		.thumb_func
 626              		.fpu softvfp
 628              	MPU_IICreadBytes:
 629              	.LVL43:
 630              	.LFB76:
 135:Core/Src/mpu6050.c **** 
 136:Core/Src/mpu6050.c **** /**************************实现函数********************************************
 137:Core/Src/mpu6050.c **** *函数原型:		unsigned char I2C_ReadOneByte(unsigned char I2C_Addr,unsigned char addr)
 138:Core/Src/mpu6050.c **** *功　　能:	    读取指定设备 指定寄存器的一个值
 139:Core/Src/mpu6050.c **** 输入	I2C_Addr  目标设备地址
 140:Core/Src/mpu6050.c **** 		addr	   寄存器地址
 141:Core/Src/mpu6050.c **** 返回   读出来的值
 142:Core/Src/mpu6050.c **** *******************************************************************************/ 
 143:Core/Src/mpu6050.c **** extern unsigned char MPU_I2C_ReadOneByte(unsigned char I2C_Addr,unsigned char addr) {
 144:Core/Src/mpu6050.c **** 	unsigned char res=0;
 145:Core/Src/mpu6050.c **** 	
 146:Core/Src/mpu6050.c **** 	MPU_IIC_Start();	
 147:Core/Src/mpu6050.c **** 	MPU_IIC_Send_Byte(I2C_Addr << 1);	   //发送写命令
 148:Core/Src/mpu6050.c **** 	res++;
 149:Core/Src/mpu6050.c **** 	MPU_IIC_Wait_Ack();
 150:Core/Src/mpu6050.c **** 	MPU_IIC_Send_Byte(addr); 
 151:Core/Src/mpu6050.c **** 	res++;  //发送地址
 152:Core/Src/mpu6050.c **** 	MPU_IIC_Wait_Ack();	  
 153:Core/Src/mpu6050.c **** 	//IIC_Stop();//产生一个停止条件	
 154:Core/Src/mpu6050.c **** 	MPU_IIC_Start();
 155:Core/Src/mpu6050.c **** 	MPU_IIC_Send_Byte((I2C_Addr << 1)+1); 
 156:Core/Src/mpu6050.c **** 	res++;          //进入接收模式			   
 157:Core/Src/mpu6050.c **** 	MPU_IIC_Wait_Ack();
 158:Core/Src/mpu6050.c **** 	res = MPU_IIC_Read_Byte(0);	   
 159:Core/Src/mpu6050.c ****     MPU_IIC_Stop();//产生一个停止条件
 160:Core/Src/mpu6050.c **** 
 161:Core/Src/mpu6050.c **** 	return res;
 162:Core/Src/mpu6050.c **** }
 163:Core/Src/mpu6050.c **** 
 164:Core/Src/mpu6050.c **** 
 165:Core/Src/mpu6050.c **** /**************************实现函数********************************************
 166:Core/Src/mpu6050.c **** *函数原型:		uint8_t IICreadBytes(uint8_t dev, uint8_t reg, uint8_t length, uint8_t *data)
 167:Core/Src/mpu6050.c **** *功　　能:	    读取指定设备 指定寄存器的 length个值
 168:Core/Src/mpu6050.c **** 输入	dev  目标设备地址
 169:Core/Src/mpu6050.c **** 		reg	  寄存器地址
 170:Core/Src/mpu6050.c **** 		length 要读的字节数
 171:Core/Src/mpu6050.c **** 		*data  读出的数据将要存放的指针
 172:Core/Src/mpu6050.c **** 返回   读出来的字节数量
 173:Core/Src/mpu6050.c **** *******************************************************************************/ 
 174:Core/Src/mpu6050.c **** static uint8_t MPU_IICreadBytes(uint8_t dev, uint8_t reg, uint8_t length, uint8_t *data) {
 631              		.loc 1 174 90 is_stmt 1 view -0
 632              		.cfi_startproc
 633              		@ args = 0, pretend = 0, frame = 0
 634              		@ frame_needed = 0, uses_anonymous_args = 0
 635              		.loc 1 174 90 is_stmt 0 view .LVU170
 636 0000 F8B5     		push	{r3, r4, r5, r6, r7, lr}
ARM GAS  C:\Users\Mr.Zhu\AppData\Local\Temp\ccS7Rdda.s 			page 17


 637              	.LCFI7:
 638              		.cfi_def_cfa_offset 24
 639              		.cfi_offset 3, -24
 640              		.cfi_offset 4, -20
 641              		.cfi_offset 5, -16
 642              		.cfi_offset 6, -12
 643              		.cfi_offset 7, -8
 644              		.cfi_offset 14, -4
 645 0002 0446     		mov	r4, r0
 646 0004 0F46     		mov	r7, r1
 647 0006 1546     		mov	r5, r2
 648 0008 1E46     		mov	r6, r3
 175:Core/Src/mpu6050.c ****     uint8_t count = 0;
 649              		.loc 1 175 5 is_stmt 1 view .LVU171
 650              	.LVL44:
 176:Core/Src/mpu6050.c **** 	
 177:Core/Src/mpu6050.c **** 	MPU_IIC_Start();
 651              		.loc 1 177 2 view .LVU172
 652 000a FFF7FEFF 		bl	MPU_IIC_Start
 653              	.LVL45:
 178:Core/Src/mpu6050.c **** 	MPU_IIC_Send_Byte(dev << 1);	   //发送写命令
 654              		.loc 1 178 2 view .LVU173
 655 000e 6400     		lsls	r4, r4, #1
 656 0010 E4B2     		uxtb	r4, r4
 657 0012 2046     		mov	r0, r4
 658 0014 FFF7FEFF 		bl	MPU_IIC_Send_Byte
 659              	.LVL46:
 179:Core/Src/mpu6050.c **** 	MPU_IIC_Wait_Ack();
 660              		.loc 1 179 2 view .LVU174
 661 0018 FFF7FEFF 		bl	MPU_IIC_Wait_Ack
 662              	.LVL47:
 180:Core/Src/mpu6050.c **** 	MPU_IIC_Send_Byte(reg);   //发送地址
 663              		.loc 1 180 2 view .LVU175
 664 001c 3846     		mov	r0, r7
 665 001e FFF7FEFF 		bl	MPU_IIC_Send_Byte
 666              	.LVL48:
 181:Core/Src/mpu6050.c ****     MPU_IIC_Wait_Ack();	  
 667              		.loc 1 181 5 view .LVU176
 668 0022 FFF7FEFF 		bl	MPU_IIC_Wait_Ack
 669              	.LVL49:
 182:Core/Src/mpu6050.c **** 	MPU_IIC_Start();
 670              		.loc 1 182 2 view .LVU177
 671 0026 FFF7FEFF 		bl	MPU_IIC_Start
 672              	.LVL50:
 183:Core/Src/mpu6050.c **** 	MPU_IIC_Send_Byte((dev << 1) + 1);  //进入接收模式	
 673              		.loc 1 183 2 view .LVU178
 674 002a 601C     		adds	r0, r4, #1
 675 002c C0B2     		uxtb	r0, r0
 676 002e FFF7FEFF 		bl	MPU_IIC_Send_Byte
 677              	.LVL51:
 184:Core/Src/mpu6050.c **** 	MPU_IIC_Wait_Ack();
 678              		.loc 1 184 2 view .LVU179
 679 0032 FFF7FEFF 		bl	MPU_IIC_Wait_Ack
 680              	.LVL52:
 185:Core/Src/mpu6050.c **** 	
 186:Core/Src/mpu6050.c ****     for(count = 0; count < length; count++){	 
 681              		.loc 1 186 5 view .LVU180
ARM GAS  C:\Users\Mr.Zhu\AppData\Local\Temp\ccS7Rdda.s 			page 18


 682              		.loc 1 186 15 is_stmt 0 view .LVU181
 683 0036 0024     		movs	r4, #0
 684              		.loc 1 186 5 view .LVU182
 685 0038 05E0     		b	.L51
 686              	.LVL53:
 687              	.L52:
 187:Core/Src/mpu6050.c **** 		if(count != length-1) data[count] = MPU_IIC_Read_Byte(1);  //带ACK的读数据
 188:Core/Src/mpu6050.c **** 		else  data[count]=MPU_IIC_Read_Byte(0);	 //最后一个字节NACK
 688              		.loc 1 188 9 is_stmt 1 view .LVU183
 689              		.loc 1 188 21 is_stmt 0 view .LVU184
 690 003a 0020     		movs	r0, #0
 691 003c FFF7FEFF 		bl	MPU_IIC_Read_Byte
 692              	.LVL54:
 693              		.loc 1 188 20 view .LVU185
 694 0040 3055     		strb	r0, [r6, r4]
 695              	.L53:
 186:Core/Src/mpu6050.c **** 		if(count != length-1) data[count] = MPU_IIC_Read_Byte(1);  //带ACK的读数据
 696              		.loc 1 186 36 is_stmt 1 discriminator 2 view .LVU186
 186:Core/Src/mpu6050.c **** 		if(count != length-1) data[count] = MPU_IIC_Read_Byte(1);  //带ACK的读数据
 697              		.loc 1 186 41 is_stmt 0 discriminator 2 view .LVU187
 698 0042 0134     		adds	r4, r4, #1
 699              	.LVL55:
 186:Core/Src/mpu6050.c **** 		if(count != length-1) data[count] = MPU_IIC_Read_Byte(1);  //带ACK的读数据
 700              		.loc 1 186 41 discriminator 2 view .LVU188
 701 0044 E4B2     		uxtb	r4, r4
 702              	.LVL56:
 703              	.L51:
 186:Core/Src/mpu6050.c **** 		if(count != length-1) data[count] = MPU_IIC_Read_Byte(1);  //带ACK的读数据
 704              		.loc 1 186 20 is_stmt 1 discriminator 1 view .LVU189
 186:Core/Src/mpu6050.c **** 		if(count != length-1) data[count] = MPU_IIC_Read_Byte(1);  //带ACK的读数据
 705              		.loc 1 186 5 is_stmt 0 discriminator 1 view .LVU190
 706 0046 AC42     		cmp	r4, r5
 707 0048 07D2     		bcs	.L56
 187:Core/Src/mpu6050.c **** 		if(count != length-1) data[count] = MPU_IIC_Read_Byte(1);  //带ACK的读数据
 708              		.loc 1 187 3 is_stmt 1 view .LVU191
 187:Core/Src/mpu6050.c **** 		if(count != length-1) data[count] = MPU_IIC_Read_Byte(1);  //带ACK的读数据
 709              		.loc 1 187 21 is_stmt 0 view .LVU192
 710 004a 6A1E     		subs	r2, r5, #1
 187:Core/Src/mpu6050.c **** 		if(count != length-1) data[count] = MPU_IIC_Read_Byte(1);  //带ACK的读数据
 711              		.loc 1 187 5 view .LVU193
 712 004c 9442     		cmp	r4, r2
 713 004e F4D0     		beq	.L52
 187:Core/Src/mpu6050.c **** 		if(count != length-1) data[count] = MPU_IIC_Read_Byte(1);  //带ACK的读数据
 714              		.loc 1 187 25 is_stmt 1 discriminator 1 view .LVU194
 187:Core/Src/mpu6050.c **** 		if(count != length-1) data[count] = MPU_IIC_Read_Byte(1);  //带ACK的读数据
 715              		.loc 1 187 39 is_stmt 0 discriminator 1 view .LVU195
 716 0050 0120     		movs	r0, #1
 717 0052 FFF7FEFF 		bl	MPU_IIC_Read_Byte
 718              	.LVL57:
 187:Core/Src/mpu6050.c **** 		if(count != length-1) data[count] = MPU_IIC_Read_Byte(1);  //带ACK的读数据
 719              		.loc 1 187 37 discriminator 1 view .LVU196
 720 0056 3055     		strb	r0, [r6, r4]
 721 0058 F3E7     		b	.L53
 722              	.L56:
 189:Core/Src/mpu6050.c **** 	}
 190:Core/Src/mpu6050.c ****     MPU_IIC_Stop();//产生一个停止条件
 723              		.loc 1 190 5 is_stmt 1 view .LVU197
ARM GAS  C:\Users\Mr.Zhu\AppData\Local\Temp\ccS7Rdda.s 			page 19


 724 005a FFF7FEFF 		bl	MPU_IIC_Stop
 725              	.LVL58:
 191:Core/Src/mpu6050.c ****     return count;
 726              		.loc 1 191 5 view .LVU198
 192:Core/Src/mpu6050.c **** }
 727              		.loc 1 192 1 is_stmt 0 view .LVU199
 728 005e 2046     		mov	r0, r4
 729 0060 F8BD     		pop	{r3, r4, r5, r6, r7, pc}
 730              		.loc 1 192 1 view .LVU200
 731              		.cfi_endproc
 732              	.LFE76:
 734              		.section	.text.MPU_IICwriteBytes,"ax",%progbits
 735              		.align	1
 736              		.syntax unified
 737              		.thumb
 738              		.thumb_func
 739              		.fpu softvfp
 741              	MPU_IICwriteBytes:
 742              	.LVL59:
 743              	.LFB77:
 193:Core/Src/mpu6050.c **** 
 194:Core/Src/mpu6050.c **** /**************************实现函数********************************************
 195:Core/Src/mpu6050.c **** *函数原型:		uint8_t IICwriteBytes(uint8_t dev, uint8_t reg, uint8_t length, uint8_t* data)
 196:Core/Src/mpu6050.c **** *功　　能:	    将多个字节写入指定设备 指定寄存器
 197:Core/Src/mpu6050.c **** 输入	dev  目标设备地址
 198:Core/Src/mpu6050.c **** 		reg	  寄存器地址
 199:Core/Src/mpu6050.c **** 		length 要写的字节数
 200:Core/Src/mpu6050.c **** 		*data  将要写的数据的首地址
 201:Core/Src/mpu6050.c **** 返回   返回是否成功
 202:Core/Src/mpu6050.c **** *******************************************************************************/ 
 203:Core/Src/mpu6050.c **** static uint8_t MPU_IICwriteBytes(uint8_t dev, uint8_t reg, uint8_t length, uint8_t* data) {
 744              		.loc 1 203 91 is_stmt 1 view -0
 745              		.cfi_startproc
 746              		@ args = 0, pretend = 0, frame = 0
 747              		@ frame_needed = 0, uses_anonymous_args = 0
 748              		.loc 1 203 91 is_stmt 0 view .LVU202
 749 0000 F8B5     		push	{r3, r4, r5, r6, r7, lr}
 750              	.LCFI8:
 751              		.cfi_def_cfa_offset 24
 752              		.cfi_offset 3, -24
 753              		.cfi_offset 4, -20
 754              		.cfi_offset 5, -16
 755              		.cfi_offset 6, -12
 756              		.cfi_offset 7, -8
 757              		.cfi_offset 14, -4
 758 0002 0446     		mov	r4, r0
 759 0004 0F46     		mov	r7, r1
 760 0006 1546     		mov	r5, r2
 761 0008 1E46     		mov	r6, r3
 204:Core/Src/mpu6050.c ****  	uint8_t count = 0;
 762              		.loc 1 204 3 is_stmt 1 view .LVU203
 763              	.LVL60:
 205:Core/Src/mpu6050.c **** 	MPU_IIC_Start();
 764              		.loc 1 205 2 view .LVU204
 765 000a FFF7FEFF 		bl	MPU_IIC_Start
 766              	.LVL61:
 206:Core/Src/mpu6050.c **** 	MPU_IIC_Send_Byte(dev << 1);	   //发送写命令
ARM GAS  C:\Users\Mr.Zhu\AppData\Local\Temp\ccS7Rdda.s 			page 20


 767              		.loc 1 206 2 view .LVU205
 768 000e 6000     		lsls	r0, r4, #1
 769 0010 00F0FE00 		and	r0, r0, #254
 770 0014 FFF7FEFF 		bl	MPU_IIC_Send_Byte
 771              	.LVL62:
 207:Core/Src/mpu6050.c **** 	MPU_IIC_Wait_Ack();
 772              		.loc 1 207 2 view .LVU206
 773 0018 FFF7FEFF 		bl	MPU_IIC_Wait_Ack
 774              	.LVL63:
 208:Core/Src/mpu6050.c **** 	MPU_IIC_Send_Byte(reg);   //发送地址
 775              		.loc 1 208 2 view .LVU207
 776 001c 3846     		mov	r0, r7
 777 001e FFF7FEFF 		bl	MPU_IIC_Send_Byte
 778              	.LVL64:
 209:Core/Src/mpu6050.c ****     MPU_IIC_Wait_Ack();	  
 779              		.loc 1 209 5 view .LVU208
 780 0022 FFF7FEFF 		bl	MPU_IIC_Wait_Ack
 781              	.LVL65:
 210:Core/Src/mpu6050.c **** 	for(count = 0; count < length; count++){
 782              		.loc 1 210 2 view .LVU209
 783              		.loc 1 210 12 is_stmt 0 view .LVU210
 784 0026 0024     		movs	r4, #0
 785              		.loc 1 210 2 view .LVU211
 786 0028 06E0     		b	.L58
 787              	.LVL66:
 788              	.L59:
 211:Core/Src/mpu6050.c **** 		MPU_IIC_Send_Byte(data[count]); 
 789              		.loc 1 211 3 is_stmt 1 discriminator 3 view .LVU212
 790 002a 305D     		ldrb	r0, [r6, r4]	@ zero_extendqisi2
 791 002c FFF7FEFF 		bl	MPU_IIC_Send_Byte
 792              	.LVL67:
 212:Core/Src/mpu6050.c **** 		MPU_IIC_Wait_Ack(); 
 793              		.loc 1 212 3 discriminator 3 view .LVU213
 794 0030 FFF7FEFF 		bl	MPU_IIC_Wait_Ack
 795              	.LVL68:
 210:Core/Src/mpu6050.c **** 	for(count = 0; count < length; count++){
 796              		.loc 1 210 33 discriminator 3 view .LVU214
 210:Core/Src/mpu6050.c **** 	for(count = 0; count < length; count++){
 797              		.loc 1 210 38 is_stmt 0 discriminator 3 view .LVU215
 798 0034 0134     		adds	r4, r4, #1
 799              	.LVL69:
 210:Core/Src/mpu6050.c **** 	for(count = 0; count < length; count++){
 800              		.loc 1 210 38 discriminator 3 view .LVU216
 801 0036 E4B2     		uxtb	r4, r4
 802              	.LVL70:
 803              	.L58:
 210:Core/Src/mpu6050.c **** 	for(count = 0; count < length; count++){
 804              		.loc 1 210 17 is_stmt 1 discriminator 1 view .LVU217
 210:Core/Src/mpu6050.c **** 	for(count = 0; count < length; count++){
 805              		.loc 1 210 2 is_stmt 0 discriminator 1 view .LVU218
 806 0038 AC42     		cmp	r4, r5
 807 003a F6D3     		bcc	.L59
 213:Core/Src/mpu6050.c **** 	}
 214:Core/Src/mpu6050.c **** 	MPU_IIC_Stop();//产生一个停止条件
 808              		.loc 1 214 2 is_stmt 1 view .LVU219
 809 003c FFF7FEFF 		bl	MPU_IIC_Stop
 810              	.LVL71:
ARM GAS  C:\Users\Mr.Zhu\AppData\Local\Temp\ccS7Rdda.s 			page 21


 215:Core/Src/mpu6050.c **** 
 216:Core/Src/mpu6050.c ****     return 1; //status == 0;
 811              		.loc 1 216 5 view .LVU220
 217:Core/Src/mpu6050.c **** }
 812              		.loc 1 217 1 is_stmt 0 view .LVU221
 813 0040 0120     		movs	r0, #1
 814 0042 F8BD     		pop	{r3, r4, r5, r6, r7, pc}
 815              		.loc 1 217 1 view .LVU222
 816              		.cfi_endproc
 817              	.LFE77:
 819              		.section	.text.MPU_IICwriteByte,"ax",%progbits
 820              		.align	1
 821              		.syntax unified
 822              		.thumb
 823              		.thumb_func
 824              		.fpu softvfp
 826              	MPU_IICwriteByte:
 827              	.LVL72:
 828              	.LFB79:
 218:Core/Src/mpu6050.c **** 
 219:Core/Src/mpu6050.c **** /**************************实现函数********************************************
 220:Core/Src/mpu6050.c **** *函数原型:		uint8_t IICreadByte(uint8_t dev, uint8_t reg, uint8_t *data)
 221:Core/Src/mpu6050.c **** *功　　能:	    读取指定设备 指定寄存器的一个值
 222:Core/Src/mpu6050.c **** 输入	dev  目标设备地址
 223:Core/Src/mpu6050.c **** 		reg	   寄存器地址
 224:Core/Src/mpu6050.c **** 		*data  读出的数据将要存放的地址
 225:Core/Src/mpu6050.c **** 返回   1
 226:Core/Src/mpu6050.c **** *******************************************************************************/ 
 227:Core/Src/mpu6050.c **** 
 228:Core/Src/mpu6050.c **** 
 229:Core/Src/mpu6050.c **** static uint8_t MPU_IICreadByte(uint8_t dev, uint8_t reg, uint8_t *data) {
 230:Core/Src/mpu6050.c **** 	*data=MPU_I2C_ReadOneByte(dev, reg);
 231:Core/Src/mpu6050.c ****     return 1;
 232:Core/Src/mpu6050.c **** }
 233:Core/Src/mpu6050.c **** 
 234:Core/Src/mpu6050.c **** /**************************实现函数********************************************
 235:Core/Src/mpu6050.c **** *函数原型:		unsigned char IICwriteByte(unsigned char dev, unsigned char reg, unsigned char data
 236:Core/Src/mpu6050.c **** *功　　能:	    写入指定设备 指定寄存器一个字节
 237:Core/Src/mpu6050.c **** 输入	dev  目标设备地址
 238:Core/Src/mpu6050.c **** 		reg	   寄存器地址
 239:Core/Src/mpu6050.c **** 		data  将要写入的字节
 240:Core/Src/mpu6050.c **** 返回   1
 241:Core/Src/mpu6050.c **** *******************************************************************************/ 
 242:Core/Src/mpu6050.c **** static unsigned char MPU_IICwriteByte(unsigned char dev, unsigned char reg, unsigned char data) {
 829              		.loc 1 242 97 is_stmt 1 view -0
 830              		.cfi_startproc
 831              		@ args = 0, pretend = 0, frame = 8
 832              		@ frame_needed = 0, uses_anonymous_args = 0
 833              		.loc 1 242 97 is_stmt 0 view .LVU224
 834 0000 00B5     		push	{lr}
 835              	.LCFI9:
 836              		.cfi_def_cfa_offset 4
 837              		.cfi_offset 14, -4
 838 0002 83B0     		sub	sp, sp, #12
 839              	.LCFI10:
 840              		.cfi_def_cfa_offset 16
 841 0004 8DF80720 		strb	r2, [sp, #7]
ARM GAS  C:\Users\Mr.Zhu\AppData\Local\Temp\ccS7Rdda.s 			page 22


 243:Core/Src/mpu6050.c ****     return MPU_IICwriteBytes(dev, reg, 1, &data);
 842              		.loc 1 243 5 is_stmt 1 view .LVU225
 843              		.loc 1 243 12 is_stmt 0 view .LVU226
 844 0008 0DF10703 		add	r3, sp, #7
 845 000c 0122     		movs	r2, #1
 846              	.LVL73:
 847              		.loc 1 243 12 view .LVU227
 848 000e FFF7FEFF 		bl	MPU_IICwriteBytes
 849              	.LVL74:
 244:Core/Src/mpu6050.c **** }
 850              		.loc 1 244 1 view .LVU228
 851 0012 03B0     		add	sp, sp, #12
 852              	.LCFI11:
 853              		.cfi_def_cfa_offset 4
 854              		@ sp needed
 855 0014 5DF804FB 		ldr	pc, [sp], #4
 856              		.cfi_endproc
 857              	.LFE79:
 859              		.section	.text.MPU6050_set_SMPRT_DIV,"ax",%progbits
 860              		.align	1
 861              		.syntax unified
 862              		.thumb
 863              		.thumb_func
 864              		.fpu softvfp
 866              	MPU6050_set_SMPRT_DIV:
 867              	.LVL75:
 868              	.LFB87:
 245:Core/Src/mpu6050.c **** 
 246:Core/Src/mpu6050.c **** /**************************实现函数********************************************
 247:Core/Src/mpu6050.c **** *函数原型:		uint8_t IICwriteBits(uint8_t dev,uint8_t reg,uint8_t bitStart,uint8_t length,uint8_
 248:Core/Src/mpu6050.c **** *功　　能:	    读 修改 写 指定设备 指定寄存器一个字节 中的多个位
 249:Core/Src/mpu6050.c **** 输入	dev  目标设备地址
 250:Core/Src/mpu6050.c **** 		reg	   寄存器地址
 251:Core/Src/mpu6050.c **** 		bitStart  目标字节的起始位
 252:Core/Src/mpu6050.c **** 		length   位长度
 253:Core/Src/mpu6050.c **** 		data    存放改变目标字节位的值
 254:Core/Src/mpu6050.c **** 返回   成功 为1 
 255:Core/Src/mpu6050.c ****  		失败为0
 256:Core/Src/mpu6050.c **** *******************************************************************************/ 
 257:Core/Src/mpu6050.c **** 
 258:Core/Src/mpu6050.c **** static uint8_t MPU_IICwriteBits(uint8_t dev,uint8_t reg,uint8_t bitStart,uint8_t length,uint8_t dat
 259:Core/Src/mpu6050.c ****     uint8_t b;
 260:Core/Src/mpu6050.c ****     if (MPU_IICreadByte(dev, reg, &b) != 0) {
 261:Core/Src/mpu6050.c ****         uint8_t mask = (0xFF << (bitStart + 1)) | 0xFF >> ((8 - bitStart) + length - 1);
 262:Core/Src/mpu6050.c ****         data <<= (8 - length);
 263:Core/Src/mpu6050.c ****         data >>= (7 - bitStart);
 264:Core/Src/mpu6050.c ****         b &= mask;
 265:Core/Src/mpu6050.c ****         b |= data;
 266:Core/Src/mpu6050.c ****         return MPU_IICwriteByte(dev, reg, b);
 267:Core/Src/mpu6050.c ****     } else {
 268:Core/Src/mpu6050.c ****         return 0;
 269:Core/Src/mpu6050.c ****     }
 270:Core/Src/mpu6050.c **** }
 271:Core/Src/mpu6050.c **** 
 272:Core/Src/mpu6050.c **** 
 273:Core/Src/mpu6050.c **** /**************************实现函数********************************************
 274:Core/Src/mpu6050.c **** *函数原型:		uint8_t IICwriteBit(uint8_t dev, uint8_t reg, uint8_t bitNum, uint8_t data)
ARM GAS  C:\Users\Mr.Zhu\AppData\Local\Temp\ccS7Rdda.s 			page 23


 275:Core/Src/mpu6050.c **** *功　　能:	    读 修改 写 指定设备 指定寄存器一个字节 中的1个位
 276:Core/Src/mpu6050.c **** 输入	dev  目标设备地址
 277:Core/Src/mpu6050.c **** 		reg	   寄存器地址
 278:Core/Src/mpu6050.c **** 		bitNum  要修改目标字节的bitNum位
 279:Core/Src/mpu6050.c **** 		data  为0 时，目标位将被清0 否则将被置位
 280:Core/Src/mpu6050.c **** 返回   成功 为1 
 281:Core/Src/mpu6050.c ****  		失败为0
 282:Core/Src/mpu6050.c **** *******************************************************************************/ 
 283:Core/Src/mpu6050.c **** static uint8_t MPU_IICwriteBit(uint8_t dev, uint8_t reg, uint8_t bitNum, uint8_t data) {
 284:Core/Src/mpu6050.c ****     uint8_t b;
 285:Core/Src/mpu6050.c ****     MPU_IICreadByte(dev, reg, &b);
 286:Core/Src/mpu6050.c ****     b = (data != 0) ? (b | (1 << bitNum)) : (b & ~(1 << bitNum));
 287:Core/Src/mpu6050.c ****     return MPU_IICwriteByte(dev, reg, b);
 288:Core/Src/mpu6050.c **** }
 289:Core/Src/mpu6050.c **** 
 290:Core/Src/mpu6050.c **** 
 291:Core/Src/mpu6050.c **** // /**************************实现函数********************************************
 292:Core/Src/mpu6050.c **** // *函数原型:		bool i2cWrite(uint8_t addr, uint8_t reg, uint8_t data)
 293:Core/Src/mpu6050.c **** // *功　　能:		
 294:Core/Src/mpu6050.c **** // *******************************************************************************/
 295:Core/Src/mpu6050.c **** // static int MPU_i2cWrite(uint8_t addr, uint8_t reg, uint8_t len, uint8_t *data) {
 296:Core/Src/mpu6050.c **** // 	int i;
 297:Core/Src/mpu6050.c **** //     if (!MPU_IIC_Start()) return 1;
 298:Core/Src/mpu6050.c **** //     MPU_IIC_Send_Byte(addr << 1);
 299:Core/Src/mpu6050.c **** //     if (!MPU_IIC_Wait_Ack()) {
 300:Core/Src/mpu6050.c **** //         MPU_IIC_Stop();
 301:Core/Src/mpu6050.c **** //         return 1;
 302:Core/Src/mpu6050.c **** //     }
 303:Core/Src/mpu6050.c **** //     MPU_IIC_Send_Byte(reg);
 304:Core/Src/mpu6050.c **** //     MPU_IIC_Wait_Ack();
 305:Core/Src/mpu6050.c **** // 	for (i = 0; i < len; i++) {
 306:Core/Src/mpu6050.c **** // 		MPU_IIC_Send_Byte(data[i]);
 307:Core/Src/mpu6050.c **** // 		if (!MPU_IIC_Wait_Ack()) {
 308:Core/Src/mpu6050.c **** // 			MPU_IIC_Stop();
 309:Core/Src/mpu6050.c **** // 			return 0;
 310:Core/Src/mpu6050.c **** // 		}
 311:Core/Src/mpu6050.c **** // 	}
 312:Core/Src/mpu6050.c **** //     MPU_IIC_Stop();
 313:Core/Src/mpu6050.c **** //     return 0;
 314:Core/Src/mpu6050.c **** // }
 315:Core/Src/mpu6050.c **** // /**************************实现函数********************************************
 316:Core/Src/mpu6050.c **** // *函数原型:		bool i2cWrite(uint8_t addr, uint8_t reg, uint8_t data)
 317:Core/Src/mpu6050.c **** // *功　　能:		
 318:Core/Src/mpu6050.c **** // *******************************************************************************/
 319:Core/Src/mpu6050.c **** // static int MPU_i2cRead(uint8_t addr, uint8_t reg, uint8_t len, uint8_t *buf) {
 320:Core/Src/mpu6050.c **** //     if (!MPU_IIC_Start()) return 1;
 321:Core/Src/mpu6050.c **** //     MPU_IIC_Send_Byte(addr << 1);
 322:Core/Src/mpu6050.c **** //     if (!MPU_IIC_Wait_Ack()) {
 323:Core/Src/mpu6050.c **** //         MPU_IIC_Stop();
 324:Core/Src/mpu6050.c **** //         return 1;
 325:Core/Src/mpu6050.c **** //     }
 326:Core/Src/mpu6050.c **** //     MPU_IIC_Send_Byte(reg);
 327:Core/Src/mpu6050.c **** //     MPU_IIC_Wait_Ack();
 328:Core/Src/mpu6050.c **** //     MPU_IIC_Start();
 329:Core/Src/mpu6050.c **** //     MPU_IIC_Send_Byte((addr << 1) + 1);
 330:Core/Src/mpu6050.c **** //     MPU_IIC_Wait_Ack();
 331:Core/Src/mpu6050.c **** //     while (len) {
ARM GAS  C:\Users\Mr.Zhu\AppData\Local\Temp\ccS7Rdda.s 			page 24


 332:Core/Src/mpu6050.c **** //         if (len == 1)
 333:Core/Src/mpu6050.c **** //             *buf = MPU_IIC_Read_Byte(0);
 334:Core/Src/mpu6050.c **** //         else
 335:Core/Src/mpu6050.c **** //             *buf = MPU_IIC_Read_Byte(1);
 336:Core/Src/mpu6050.c **** //         buf++;
 337:Core/Src/mpu6050.c **** //         len--;
 338:Core/Src/mpu6050.c **** //     }
 339:Core/Src/mpu6050.c **** //     MPU_IIC_Stop();
 340:Core/Src/mpu6050.c **** //     return 0;
 341:Core/Src/mpu6050.c **** // }
 342:Core/Src/mpu6050.c **** 
 343:Core/Src/mpu6050.c **** 
 344:Core/Src/mpu6050.c **** uint8_t buffer[14];
 345:Core/Src/mpu6050.c **** 
 346:Core/Src/mpu6050.c **** static void MPU6050_setClockSource(uint8_t source) {
 347:Core/Src/mpu6050.c ****     MPU_IICwriteBits(0x68, 0x6B, 2, 3, source);
 348:Core/Src/mpu6050.c **** }
 349:Core/Src/mpu6050.c **** 
 350:Core/Src/mpu6050.c **** static void MPU6050_setFullScaleGyroRange(uint8_t range) {
 351:Core/Src/mpu6050.c ****     MPU_IICwriteBits(0x68, 0x1B, 4, 2, range);
 352:Core/Src/mpu6050.c **** }
 353:Core/Src/mpu6050.c **** 
 354:Core/Src/mpu6050.c **** static void MPU6050_setFullScaleAccelRange(uint8_t range) {
 355:Core/Src/mpu6050.c ****     MPU_IICwriteBits(0x68, 0x1C, 4, 2, range);
 356:Core/Src/mpu6050.c **** }
 357:Core/Src/mpu6050.c **** 
 358:Core/Src/mpu6050.c **** 
 359:Core/Src/mpu6050.c **** static void MPU6050_resetEnabled(uint8_t enabled) {
 360:Core/Src/mpu6050.c ****     MPU_IICwriteBit(0x68, 0x6B, 7, enabled);
 361:Core/Src/mpu6050.c **** 	HAL_Delay(100);
 362:Core/Src/mpu6050.c **** }
 363:Core/Src/mpu6050.c **** 
 364:Core/Src/mpu6050.c **** 
 365:Core/Src/mpu6050.c **** static void MPU6050_set_Gyro_Accel_outRange(uint8_t range) {
 366:Core/Src/mpu6050.c ****     MPU_IICwriteBits(0x68, 0x6C, 5, 6, range);
 367:Core/Src/mpu6050.c **** }
 368:Core/Src/mpu6050.c **** 
 369:Core/Src/mpu6050.c **** static void MPU6050_set_SMPRT_DIV(uint8_t range) {
 869              		.loc 1 369 50 is_stmt 1 view -0
 870              		.cfi_startproc
 871              		@ args = 0, pretend = 0, frame = 0
 872              		@ frame_needed = 0, uses_anonymous_args = 0
 873              		.loc 1 369 50 is_stmt 0 view .LVU230
 874 0000 08B5     		push	{r3, lr}
 875              	.LCFI12:
 876              		.cfi_def_cfa_offset 8
 877              		.cfi_offset 3, -8
 878              		.cfi_offset 14, -4
 879 0002 0246     		mov	r2, r0
 370:Core/Src/mpu6050.c **** 	MPU_IICwriteByte(0x68,0x19,range);
 880              		.loc 1 370 2 is_stmt 1 view .LVU231
 881 0004 1921     		movs	r1, #25
 882 0006 6820     		movs	r0, #104
 883              	.LVL76:
 884              		.loc 1 370 2 is_stmt 0 view .LVU232
 885 0008 FFF7FEFF 		bl	MPU_IICwriteByte
 886              	.LVL77:
ARM GAS  C:\Users\Mr.Zhu\AppData\Local\Temp\ccS7Rdda.s 			page 25


 371:Core/Src/mpu6050.c **** }
 887              		.loc 1 371 1 view .LVU233
 888 000c 08BD     		pop	{r3, pc}
 889              		.cfi_endproc
 890              	.LFE87:
 892              		.section	.rodata.MPU6050_testConnection.str1.4,"aMS",%progbits,1
 893              		.align	2
 894              	.LC0:
 895 0000 436F756C 		.ascii	"Could not connect to MPU6050 \012\015\000"
 895      64206E6F 
 895      7420636F 
 895      6E6E6563 
 895      7420746F 
 896              		.section	.text.MPU6050_testConnection,"ax",%progbits
 897              		.align	1
 898              		.syntax unified
 899              		.thumb
 900              		.thumb_func
 901              		.fpu softvfp
 903              	MPU6050_testConnection:
 904              	.LFB91:
 372:Core/Src/mpu6050.c **** 
 373:Core/Src/mpu6050.c **** static void MPU6050_set_Gyro_DLPF_outRange(uint8_t range) {
 374:Core/Src/mpu6050.c ****     MPU_IICwriteBits(0x68, 0x1A, 2, 3, range);
 375:Core/Src/mpu6050.c **** }
 376:Core/Src/mpu6050.c **** 
 377:Core/Src/mpu6050.c **** 
 378:Core/Src/mpu6050.c **** static void MPU6050_INT_Disabled(uint8_t enabled) {
 379:Core/Src/mpu6050.c ****     MPU_IICwriteBit(0x68, 0x38, 0, enabled);
 380:Core/Src/mpu6050.c **** }
 381:Core/Src/mpu6050.c **** 
 382:Core/Src/mpu6050.c **** 
 383:Core/Src/mpu6050.c **** static void MPU6050_setSleepEnabled(uint8_t enabled) {
 384:Core/Src/mpu6050.c ****     MPU_IICwriteBit(0x68, 0x6B, 6, enabled);
 385:Core/Src/mpu6050.c **** }
 386:Core/Src/mpu6050.c **** 
 387:Core/Src/mpu6050.c **** 
 388:Core/Src/mpu6050.c **** static void MPU6050_testConnection(void) {
 905              		.loc 1 388 42 is_stmt 1 view -0
 906              		.cfi_startproc
 907              		@ args = 0, pretend = 0, frame = 0
 908              		@ frame_needed = 0, uses_anonymous_args = 0
 909 0000 10B5     		push	{r4, lr}
 910              	.LCFI13:
 911              		.cfi_def_cfa_offset 8
 912              		.cfi_offset 4, -8
 913              		.cfi_offset 14, -4
 389:Core/Src/mpu6050.c **** 	uint8_t mpu_test_i = 0;
 914              		.loc 1 389 2 view .LVU235
 915              	.LVL78:
 390:Core/Src/mpu6050.c **** 	while(buffer[0] != 0x68 && mpu_test_i < 10) {
 916              		.loc 1 390 2 view .LVU236
 389:Core/Src/mpu6050.c **** 	uint8_t mpu_test_i = 0;
 917              		.loc 1 389 10 is_stmt 0 view .LVU237
 918 0002 0024     		movs	r4, #0
 919              		.loc 1 390 7 view .LVU238
 920 0004 07E0     		b	.L66
ARM GAS  C:\Users\Mr.Zhu\AppData\Local\Temp\ccS7Rdda.s 			page 26


 921              	.LVL79:
 922              	.L68:
 391:Core/Src/mpu6050.c **** 		MPU_IICreadBytes(0x68, 0x75, 1, buffer);
 923              		.loc 1 391 3 is_stmt 1 view .LVU239
 924 0006 0A4B     		ldr	r3, .L72
 925 0008 0122     		movs	r2, #1
 926 000a 7521     		movs	r1, #117
 927 000c 6820     		movs	r0, #104
 928 000e FFF7FEFF 		bl	MPU_IICreadBytes
 929              	.LVL80:
 392:Core/Src/mpu6050.c **** 		mpu_test_i++;
 930              		.loc 1 392 3 view .LVU240
 931              		.loc 1 392 13 is_stmt 0 view .LVU241
 932 0012 0134     		adds	r4, r4, #1
 933              	.LVL81:
 934              		.loc 1 392 13 view .LVU242
 935 0014 E4B2     		uxtb	r4, r4
 936              	.LVL82:
 937              	.L66:
 390:Core/Src/mpu6050.c **** 	while(buffer[0] != 0x68 && mpu_test_i < 10) {
 938              		.loc 1 390 7 is_stmt 1 view .LVU243
 390:Core/Src/mpu6050.c **** 	while(buffer[0] != 0x68 && mpu_test_i < 10) {
 939              		.loc 1 390 14 is_stmt 0 view .LVU244
 940 0016 064B     		ldr	r3, .L72
 941 0018 1B78     		ldrb	r3, [r3]	@ zero_extendqisi2
 390:Core/Src/mpu6050.c **** 	while(buffer[0] != 0x68 && mpu_test_i < 10) {
 942              		.loc 1 390 7 view .LVU245
 943 001a 682B     		cmp	r3, #104
 944 001c 01D0     		beq	.L67
 390:Core/Src/mpu6050.c **** 	while(buffer[0] != 0x68 && mpu_test_i < 10) {
 945              		.loc 1 390 26 discriminator 1 view .LVU246
 946 001e 092C     		cmp	r4, #9
 947 0020 F1D9     		bls	.L68
 948              	.L67:
 393:Core/Src/mpu6050.c **** 	}
 394:Core/Src/mpu6050.c **** 	if(mpu_test_i >= 10) printf("Could not connect to MPU6050 \n\r");
 949              		.loc 1 394 2 is_stmt 1 view .LVU247
 950              		.loc 1 394 4 is_stmt 0 view .LVU248
 951 0022 092C     		cmp	r4, #9
 952 0024 00D8     		bhi	.L71
 953              	.L65:
 395:Core/Src/mpu6050.c **** 	//	 while(1);
 396:Core/Src/mpu6050.c **** }
 954              		.loc 1 396 1 view .LVU249
 955 0026 10BD     		pop	{r4, pc}
 956              	.LVL83:
 957              	.L71:
 394:Core/Src/mpu6050.c **** 	//	 while(1);
 958              		.loc 1 394 23 is_stmt 1 discriminator 1 view .LVU250
 959 0028 0248     		ldr	r0, .L72+4
 960 002a FFF7FEFF 		bl	printf
 961              	.LVL84:
 962              		.loc 1 396 1 is_stmt 0 discriminator 1 view .LVU251
 963 002e FAE7     		b	.L65
 964              	.L73:
 965              		.align	2
 966              	.L72:
ARM GAS  C:\Users\Mr.Zhu\AppData\Local\Temp\ccS7Rdda.s 			page 27


 967 0030 00000000 		.word	.LANCHOR0
 968 0034 00000000 		.word	.LC0
 969              		.cfi_endproc
 970              	.LFE91:
 972              		.section	.text.MPU_I2C_ReadOneByte,"ax",%progbits
 973              		.align	1
 974              		.global	MPU_I2C_ReadOneByte
 975              		.syntax unified
 976              		.thumb
 977              		.thumb_func
 978              		.fpu softvfp
 980              	MPU_I2C_ReadOneByte:
 981              	.LVL85:
 982              	.LFB75:
 143:Core/Src/mpu6050.c **** 	unsigned char res=0;
 983              		.loc 1 143 85 is_stmt 1 view -0
 984              		.cfi_startproc
 985              		@ args = 0, pretend = 0, frame = 0
 986              		@ frame_needed = 0, uses_anonymous_args = 0
 143:Core/Src/mpu6050.c **** 	unsigned char res=0;
 987              		.loc 1 143 85 is_stmt 0 view .LVU253
 988 0000 38B5     		push	{r3, r4, r5, lr}
 989              	.LCFI14:
 990              		.cfi_def_cfa_offset 16
 991              		.cfi_offset 3, -16
 992              		.cfi_offset 4, -12
 993              		.cfi_offset 5, -8
 994              		.cfi_offset 14, -4
 995 0002 0446     		mov	r4, r0
 996 0004 0D46     		mov	r5, r1
 144:Core/Src/mpu6050.c **** 	
 997              		.loc 1 144 2 is_stmt 1 view .LVU254
 998              	.LVL86:
 146:Core/Src/mpu6050.c **** 	MPU_IIC_Send_Byte(I2C_Addr << 1);	   //发送写命令
 999              		.loc 1 146 2 view .LVU255
 1000 0006 FFF7FEFF 		bl	MPU_IIC_Start
 1001              	.LVL87:
 147:Core/Src/mpu6050.c **** 	res++;
 1002              		.loc 1 147 2 view .LVU256
 1003 000a 6400     		lsls	r4, r4, #1
 1004 000c E4B2     		uxtb	r4, r4
 1005 000e 2046     		mov	r0, r4
 1006 0010 FFF7FEFF 		bl	MPU_IIC_Send_Byte
 1007              	.LVL88:
 148:Core/Src/mpu6050.c **** 	MPU_IIC_Wait_Ack();
 1008              		.loc 1 148 2 view .LVU257
 149:Core/Src/mpu6050.c **** 	MPU_IIC_Send_Byte(addr); 
 1009              		.loc 1 149 2 view .LVU258
 1010 0014 FFF7FEFF 		bl	MPU_IIC_Wait_Ack
 1011              	.LVL89:
 150:Core/Src/mpu6050.c **** 	res++;  //发送地址
 1012              		.loc 1 150 2 view .LVU259
 1013 0018 2846     		mov	r0, r5
 1014 001a FFF7FEFF 		bl	MPU_IIC_Send_Byte
 1015              	.LVL90:
 151:Core/Src/mpu6050.c **** 	MPU_IIC_Wait_Ack();	  
 1016              		.loc 1 151 2 view .LVU260
ARM GAS  C:\Users\Mr.Zhu\AppData\Local\Temp\ccS7Rdda.s 			page 28


 152:Core/Src/mpu6050.c **** 	//IIC_Stop();//产生一个停止条件	
 1017              		.loc 1 152 2 view .LVU261
 1018 001e FFF7FEFF 		bl	MPU_IIC_Wait_Ack
 1019              	.LVL91:
 154:Core/Src/mpu6050.c **** 	MPU_IIC_Send_Byte((I2C_Addr << 1)+1); 
 1020              		.loc 1 154 2 view .LVU262
 1021 0022 FFF7FEFF 		bl	MPU_IIC_Start
 1022              	.LVL92:
 155:Core/Src/mpu6050.c **** 	res++;          //进入接收模式			   
 1023              		.loc 1 155 2 view .LVU263
 1024 0026 601C     		adds	r0, r4, #1
 1025 0028 C0B2     		uxtb	r0, r0
 1026 002a FFF7FEFF 		bl	MPU_IIC_Send_Byte
 1027              	.LVL93:
 156:Core/Src/mpu6050.c **** 	MPU_IIC_Wait_Ack();
 1028              		.loc 1 156 2 view .LVU264
 157:Core/Src/mpu6050.c **** 	res = MPU_IIC_Read_Byte(0);	   
 1029              		.loc 1 157 2 view .LVU265
 1030 002e FFF7FEFF 		bl	MPU_IIC_Wait_Ack
 1031              	.LVL94:
 158:Core/Src/mpu6050.c ****     MPU_IIC_Stop();//产生一个停止条件
 1032              		.loc 1 158 2 view .LVU266
 158:Core/Src/mpu6050.c ****     MPU_IIC_Stop();//产生一个停止条件
 1033              		.loc 1 158 8 is_stmt 0 view .LVU267
 1034 0032 0020     		movs	r0, #0
 1035 0034 FFF7FEFF 		bl	MPU_IIC_Read_Byte
 1036              	.LVL95:
 1037 0038 0446     		mov	r4, r0
 1038              	.LVL96:
 159:Core/Src/mpu6050.c **** 
 1039              		.loc 1 159 5 is_stmt 1 view .LVU268
 1040 003a FFF7FEFF 		bl	MPU_IIC_Stop
 1041              	.LVL97:
 161:Core/Src/mpu6050.c **** }
 1042              		.loc 1 161 2 view .LVU269
 162:Core/Src/mpu6050.c **** 
 1043              		.loc 1 162 1 is_stmt 0 view .LVU270
 1044 003e 2046     		mov	r0, r4
 1045 0040 38BD     		pop	{r3, r4, r5, pc}
 162:Core/Src/mpu6050.c **** 
 1046              		.loc 1 162 1 view .LVU271
 1047              		.cfi_endproc
 1048              	.LFE75:
 1050              		.section	.text.MPU_IICreadByte,"ax",%progbits
 1051              		.align	1
 1052              		.syntax unified
 1053              		.thumb
 1054              		.thumb_func
 1055              		.fpu softvfp
 1057              	MPU_IICreadByte:
 1058              	.LVL98:
 1059              	.LFB78:
 229:Core/Src/mpu6050.c **** 	*data=MPU_I2C_ReadOneByte(dev, reg);
 1060              		.loc 1 229 73 is_stmt 1 view -0
 1061              		.cfi_startproc
 1062              		@ args = 0, pretend = 0, frame = 0
 1063              		@ frame_needed = 0, uses_anonymous_args = 0
ARM GAS  C:\Users\Mr.Zhu\AppData\Local\Temp\ccS7Rdda.s 			page 29


 229:Core/Src/mpu6050.c **** 	*data=MPU_I2C_ReadOneByte(dev, reg);
 1064              		.loc 1 229 73 is_stmt 0 view .LVU273
 1065 0000 10B5     		push	{r4, lr}
 1066              	.LCFI15:
 1067              		.cfi_def_cfa_offset 8
 1068              		.cfi_offset 4, -8
 1069              		.cfi_offset 14, -4
 1070 0002 1446     		mov	r4, r2
 230:Core/Src/mpu6050.c ****     return 1;
 1071              		.loc 1 230 2 is_stmt 1 view .LVU274
 230:Core/Src/mpu6050.c ****     return 1;
 1072              		.loc 1 230 8 is_stmt 0 view .LVU275
 1073 0004 FFF7FEFF 		bl	MPU_I2C_ReadOneByte
 1074              	.LVL99:
 230:Core/Src/mpu6050.c ****     return 1;
 1075              		.loc 1 230 7 view .LVU276
 1076 0008 2070     		strb	r0, [r4]
 231:Core/Src/mpu6050.c **** }
 1077              		.loc 1 231 5 is_stmt 1 view .LVU277
 232:Core/Src/mpu6050.c **** 
 1078              		.loc 1 232 1 is_stmt 0 view .LVU278
 1079 000a 0120     		movs	r0, #1
 1080 000c 10BD     		pop	{r4, pc}
 232:Core/Src/mpu6050.c **** 
 1081              		.loc 1 232 1 view .LVU279
 1082              		.cfi_endproc
 1083              	.LFE78:
 1085              		.section	.text.MPU_IICwriteBit,"ax",%progbits
 1086              		.align	1
 1087              		.syntax unified
 1088              		.thumb
 1089              		.thumb_func
 1090              		.fpu softvfp
 1092              	MPU_IICwriteBit:
 1093              	.LVL100:
 1094              	.LFB81:
 283:Core/Src/mpu6050.c ****     uint8_t b;
 1095              		.loc 1 283 88 is_stmt 1 view -0
 1096              		.cfi_startproc
 1097              		@ args = 0, pretend = 0, frame = 8
 1098              		@ frame_needed = 0, uses_anonymous_args = 0
 283:Core/Src/mpu6050.c ****     uint8_t b;
 1099              		.loc 1 283 88 is_stmt 0 view .LVU281
 1100 0000 F0B5     		push	{r4, r5, r6, r7, lr}
 1101              	.LCFI16:
 1102              		.cfi_def_cfa_offset 20
 1103              		.cfi_offset 4, -20
 1104              		.cfi_offset 5, -16
 1105              		.cfi_offset 6, -12
 1106              		.cfi_offset 7, -8
 1107              		.cfi_offset 14, -4
 1108 0002 83B0     		sub	sp, sp, #12
 1109              	.LCFI17:
 1110              		.cfi_def_cfa_offset 32
 1111 0004 0446     		mov	r4, r0
 1112 0006 0D46     		mov	r5, r1
 1113 0008 1646     		mov	r6, r2
ARM GAS  C:\Users\Mr.Zhu\AppData\Local\Temp\ccS7Rdda.s 			page 30


 1114 000a 1F46     		mov	r7, r3
 284:Core/Src/mpu6050.c ****     MPU_IICreadByte(dev, reg, &b);
 1115              		.loc 1 284 5 is_stmt 1 view .LVU282
 285:Core/Src/mpu6050.c ****     b = (data != 0) ? (b | (1 << bitNum)) : (b & ~(1 << bitNum));
 1116              		.loc 1 285 5 view .LVU283
 1117 000c 0DF10702 		add	r2, sp, #7
 1118              	.LVL101:
 285:Core/Src/mpu6050.c ****     b = (data != 0) ? (b | (1 << bitNum)) : (b & ~(1 << bitNum));
 1119              		.loc 1 285 5 is_stmt 0 view .LVU284
 1120 0010 FFF7FEFF 		bl	MPU_IICreadByte
 1121              	.LVL102:
 286:Core/Src/mpu6050.c ****     return MPU_IICwriteByte(dev, reg, b);
 1122              		.loc 1 286 5 is_stmt 1 view .LVU285
 286:Core/Src/mpu6050.c ****     return MPU_IICwriteByte(dev, reg, b);
 1123              		.loc 1 286 7 is_stmt 0 view .LVU286
 1124 0014 77B1     		cbz	r7, .L79
 286:Core/Src/mpu6050.c ****     return MPU_IICwriteByte(dev, reg, b);
 1125              		.loc 1 286 31 discriminator 1 view .LVU287
 1126 0016 0122     		movs	r2, #1
 1127 0018 02FA06F6 		lsl	r6, r2, r6
 286:Core/Src/mpu6050.c ****     return MPU_IICwriteByte(dev, reg, b);
 1128              		.loc 1 286 26 discriminator 1 view .LVU288
 1129 001c 9DF80720 		ldrb	r2, [sp, #7]	@ zero_extendqisi2
 1130 0020 3243     		orrs	r2, r2, r6
 286:Core/Src/mpu6050.c ****     return MPU_IICwriteByte(dev, reg, b);
 1131              		.loc 1 286 7 discriminator 1 view .LVU289
 1132 0022 D2B2     		uxtb	r2, r2
 1133              	.L80:
 286:Core/Src/mpu6050.c ****     return MPU_IICwriteByte(dev, reg, b);
 1134              		.loc 1 286 7 discriminator 4 view .LVU290
 1135 0024 8DF80720 		strb	r2, [sp, #7]
 287:Core/Src/mpu6050.c **** }
 1136              		.loc 1 287 5 is_stmt 1 discriminator 4 view .LVU291
 287:Core/Src/mpu6050.c **** }
 1137              		.loc 1 287 12 is_stmt 0 discriminator 4 view .LVU292
 1138 0028 2946     		mov	r1, r5
 1139 002a 2046     		mov	r0, r4
 1140 002c FFF7FEFF 		bl	MPU_IICwriteByte
 1141              	.LVL103:
 288:Core/Src/mpu6050.c **** 
 1142              		.loc 1 288 1 discriminator 4 view .LVU293
 1143 0030 03B0     		add	sp, sp, #12
 1144              	.LCFI18:
 1145              		.cfi_remember_state
 1146              		.cfi_def_cfa_offset 20
 1147              		@ sp needed
 1148 0032 F0BD     		pop	{r4, r5, r6, r7, pc}
 1149              	.L79:
 1150              	.LCFI19:
 1151              		.cfi_restore_state
 286:Core/Src/mpu6050.c ****     return MPU_IICwriteByte(dev, reg, b);
 1152              		.loc 1 286 54 discriminator 2 view .LVU294
 1153 0034 0122     		movs	r2, #1
 1154 0036 02FA06F6 		lsl	r6, r2, r6
 286:Core/Src/mpu6050.c ****     return MPU_IICwriteByte(dev, reg, b);
 1155              		.loc 1 286 48 discriminator 2 view .LVU295
 1156 003a 9DF80720 		ldrb	r2, [sp, #7]	@ zero_extendqisi2
ARM GAS  C:\Users\Mr.Zhu\AppData\Local\Temp\ccS7Rdda.s 			page 31


 286:Core/Src/mpu6050.c ****     return MPU_IICwriteByte(dev, reg, b);
 1157              		.loc 1 286 7 discriminator 2 view .LVU296
 1158 003e 22EA0602 		bic	r2, r2, r6
 1159 0042 EFE7     		b	.L80
 1160              		.cfi_endproc
 1161              	.LFE81:
 1163              		.section	.text.MPU6050_resetEnabled,"ax",%progbits
 1164              		.align	1
 1165              		.syntax unified
 1166              		.thumb
 1167              		.thumb_func
 1168              		.fpu softvfp
 1170              	MPU6050_resetEnabled:
 1171              	.LVL104:
 1172              	.LFB85:
 359:Core/Src/mpu6050.c ****     MPU_IICwriteBit(0x68, 0x6B, 7, enabled);
 1173              		.loc 1 359 51 is_stmt 1 view -0
 1174              		.cfi_startproc
 1175              		@ args = 0, pretend = 0, frame = 0
 1176              		@ frame_needed = 0, uses_anonymous_args = 0
 359:Core/Src/mpu6050.c ****     MPU_IICwriteBit(0x68, 0x6B, 7, enabled);
 1177              		.loc 1 359 51 is_stmt 0 view .LVU298
 1178 0000 08B5     		push	{r3, lr}
 1179              	.LCFI20:
 1180              		.cfi_def_cfa_offset 8
 1181              		.cfi_offset 3, -8
 1182              		.cfi_offset 14, -4
 1183 0002 0346     		mov	r3, r0
 360:Core/Src/mpu6050.c **** 	HAL_Delay(100);
 1184              		.loc 1 360 5 is_stmt 1 view .LVU299
 1185 0004 0722     		movs	r2, #7
 1186 0006 6B21     		movs	r1, #107
 1187 0008 6820     		movs	r0, #104
 1188              	.LVL105:
 360:Core/Src/mpu6050.c **** 	HAL_Delay(100);
 1189              		.loc 1 360 5 is_stmt 0 view .LVU300
 1190 000a FFF7FEFF 		bl	MPU_IICwriteBit
 1191              	.LVL106:
 361:Core/Src/mpu6050.c **** }
 1192              		.loc 1 361 2 is_stmt 1 view .LVU301
 1193 000e 6420     		movs	r0, #100
 1194 0010 FFF7FEFF 		bl	HAL_Delay
 1195              	.LVL107:
 362:Core/Src/mpu6050.c **** 
 1196              		.loc 1 362 1 is_stmt 0 view .LVU302
 1197 0014 08BD     		pop	{r3, pc}
 1198              		.cfi_endproc
 1199              	.LFE85:
 1201              		.section	.text.MPU6050_INT_Disabled,"ax",%progbits
 1202              		.align	1
 1203              		.syntax unified
 1204              		.thumb
 1205              		.thumb_func
 1206              		.fpu softvfp
 1208              	MPU6050_INT_Disabled:
 1209              	.LVL108:
 1210              	.LFB89:
ARM GAS  C:\Users\Mr.Zhu\AppData\Local\Temp\ccS7Rdda.s 			page 32


 378:Core/Src/mpu6050.c ****     MPU_IICwriteBit(0x68, 0x38, 0, enabled);
 1211              		.loc 1 378 51 is_stmt 1 view -0
 1212              		.cfi_startproc
 1213              		@ args = 0, pretend = 0, frame = 0
 1214              		@ frame_needed = 0, uses_anonymous_args = 0
 378:Core/Src/mpu6050.c ****     MPU_IICwriteBit(0x68, 0x38, 0, enabled);
 1215              		.loc 1 378 51 is_stmt 0 view .LVU304
 1216 0000 08B5     		push	{r3, lr}
 1217              	.LCFI21:
 1218              		.cfi_def_cfa_offset 8
 1219              		.cfi_offset 3, -8
 1220              		.cfi_offset 14, -4
 1221 0002 0346     		mov	r3, r0
 379:Core/Src/mpu6050.c **** }
 1222              		.loc 1 379 5 is_stmt 1 view .LVU305
 1223 0004 0022     		movs	r2, #0
 1224 0006 3821     		movs	r1, #56
 1225 0008 6820     		movs	r0, #104
 1226              	.LVL109:
 379:Core/Src/mpu6050.c **** }
 1227              		.loc 1 379 5 is_stmt 0 view .LVU306
 1228 000a FFF7FEFF 		bl	MPU_IICwriteBit
 1229              	.LVL110:
 380:Core/Src/mpu6050.c **** 
 1230              		.loc 1 380 1 view .LVU307
 1231 000e 08BD     		pop	{r3, pc}
 1232              		.cfi_endproc
 1233              	.LFE89:
 1235              		.section	.text.MPU6050_setSleepEnabled,"ax",%progbits
 1236              		.align	1
 1237              		.syntax unified
 1238              		.thumb
 1239              		.thumb_func
 1240              		.fpu softvfp
 1242              	MPU6050_setSleepEnabled:
 1243              	.LVL111:
 1244              	.LFB90:
 383:Core/Src/mpu6050.c ****     MPU_IICwriteBit(0x68, 0x6B, 6, enabled);
 1245              		.loc 1 383 54 is_stmt 1 view -0
 1246              		.cfi_startproc
 1247              		@ args = 0, pretend = 0, frame = 0
 1248              		@ frame_needed = 0, uses_anonymous_args = 0
 383:Core/Src/mpu6050.c ****     MPU_IICwriteBit(0x68, 0x6B, 6, enabled);
 1249              		.loc 1 383 54 is_stmt 0 view .LVU309
 1250 0000 08B5     		push	{r3, lr}
 1251              	.LCFI22:
 1252              		.cfi_def_cfa_offset 8
 1253              		.cfi_offset 3, -8
 1254              		.cfi_offset 14, -4
 1255 0002 0346     		mov	r3, r0
 384:Core/Src/mpu6050.c **** }
 1256              		.loc 1 384 5 is_stmt 1 view .LVU310
 1257 0004 0622     		movs	r2, #6
 1258 0006 6B21     		movs	r1, #107
 1259 0008 6820     		movs	r0, #104
 1260              	.LVL112:
 384:Core/Src/mpu6050.c **** }
ARM GAS  C:\Users\Mr.Zhu\AppData\Local\Temp\ccS7Rdda.s 			page 33


 1261              		.loc 1 384 5 is_stmt 0 view .LVU311
 1262 000a FFF7FEFF 		bl	MPU_IICwriteBit
 1263              	.LVL113:
 385:Core/Src/mpu6050.c **** 
 1264              		.loc 1 385 1 view .LVU312
 1265 000e 08BD     		pop	{r3, pc}
 1266              		.cfi_endproc
 1267              	.LFE90:
 1269              		.section	.text.MPU6050_setI2CMasterModeEnabled,"ax",%progbits
 1270              		.align	1
 1271              		.syntax unified
 1272              		.thumb
 1273              		.thumb_func
 1274              		.fpu softvfp
 1276              	MPU6050_setI2CMasterModeEnabled:
 1277              	.LVL114:
 1278              	.LFB92:
 397:Core/Src/mpu6050.c **** 
 398:Core/Src/mpu6050.c **** static void MPU6050_setI2CMasterModeEnabled(uint8_t enabled) {
 1279              		.loc 1 398 62 is_stmt 1 view -0
 1280              		.cfi_startproc
 1281              		@ args = 0, pretend = 0, frame = 0
 1282              		@ frame_needed = 0, uses_anonymous_args = 0
 1283              		.loc 1 398 62 is_stmt 0 view .LVU314
 1284 0000 08B5     		push	{r3, lr}
 1285              	.LCFI23:
 1286              		.cfi_def_cfa_offset 8
 1287              		.cfi_offset 3, -8
 1288              		.cfi_offset 14, -4
 1289 0002 0346     		mov	r3, r0
 399:Core/Src/mpu6050.c ****     MPU_IICwriteBit(0x68, 0x6A, 5, enabled);
 1290              		.loc 1 399 5 is_stmt 1 view .LVU315
 1291 0004 0522     		movs	r2, #5
 1292 0006 6A21     		movs	r1, #106
 1293 0008 6820     		movs	r0, #104
 1294              	.LVL115:
 1295              		.loc 1 399 5 is_stmt 0 view .LVU316
 1296 000a FFF7FEFF 		bl	MPU_IICwriteBit
 1297              	.LVL116:
 400:Core/Src/mpu6050.c **** }
 1298              		.loc 1 400 1 view .LVU317
 1299 000e 08BD     		pop	{r3, pc}
 1300              		.cfi_endproc
 1301              	.LFE92:
 1303              		.section	.text.MPU6050_setI2CBypassEnabled,"ax",%progbits
 1304              		.align	1
 1305              		.syntax unified
 1306              		.thumb
 1307              		.thumb_func
 1308              		.fpu softvfp
 1310              	MPU6050_setI2CBypassEnabled:
 1311              	.LVL117:
 1312              	.LFB93:
 401:Core/Src/mpu6050.c **** 
 402:Core/Src/mpu6050.c **** static void MPU6050_setI2CBypassEnabled(uint8_t enabled) {
 1313              		.loc 1 402 58 is_stmt 1 view -0
 1314              		.cfi_startproc
ARM GAS  C:\Users\Mr.Zhu\AppData\Local\Temp\ccS7Rdda.s 			page 34


 1315              		@ args = 0, pretend = 0, frame = 0
 1316              		@ frame_needed = 0, uses_anonymous_args = 0
 1317              		.loc 1 402 58 is_stmt 0 view .LVU319
 1318 0000 08B5     		push	{r3, lr}
 1319              	.LCFI24:
 1320              		.cfi_def_cfa_offset 8
 1321              		.cfi_offset 3, -8
 1322              		.cfi_offset 14, -4
 1323 0002 0346     		mov	r3, r0
 403:Core/Src/mpu6050.c ****     MPU_IICwriteBit(0x68, 0x37, 1, enabled);
 1324              		.loc 1 403 5 is_stmt 1 view .LVU320
 1325 0004 0122     		movs	r2, #1
 1326 0006 3721     		movs	r1, #55
 1327 0008 6820     		movs	r0, #104
 1328              	.LVL118:
 1329              		.loc 1 403 5 is_stmt 0 view .LVU321
 1330 000a FFF7FEFF 		bl	MPU_IICwriteBit
 1331              	.LVL119:
 404:Core/Src/mpu6050.c **** }
 1332              		.loc 1 404 1 view .LVU322
 1333 000e 08BD     		pop	{r3, pc}
 1334              		.cfi_endproc
 1335              	.LFE93:
 1337              		.section	.text.MPU_IICwriteBits,"ax",%progbits
 1338              		.align	1
 1339              		.syntax unified
 1340              		.thumb
 1341              		.thumb_func
 1342              		.fpu softvfp
 1344              	MPU_IICwriteBits:
 1345              	.LVL120:
 1346              	.LFB80:
 258:Core/Src/mpu6050.c ****     uint8_t b;
 1347              		.loc 1 258 103 is_stmt 1 view -0
 1348              		.cfi_startproc
 1349              		@ args = 4, pretend = 0, frame = 8
 1350              		@ frame_needed = 0, uses_anonymous_args = 0
 258:Core/Src/mpu6050.c ****     uint8_t b;
 1351              		.loc 1 258 103 is_stmt 0 view .LVU324
 1352 0000 F0B5     		push	{r4, r5, r6, r7, lr}
 1353              	.LCFI25:
 1354              		.cfi_def_cfa_offset 20
 1355              		.cfi_offset 4, -20
 1356              		.cfi_offset 5, -16
 1357              		.cfi_offset 6, -12
 1358              		.cfi_offset 7, -8
 1359              		.cfi_offset 14, -4
 1360 0002 83B0     		sub	sp, sp, #12
 1361              	.LCFI26:
 1362              		.cfi_def_cfa_offset 32
 1363 0004 0646     		mov	r6, r0
 1364 0006 0F46     		mov	r7, r1
 1365 0008 1446     		mov	r4, r2
 1366 000a 1D46     		mov	r5, r3
 259:Core/Src/mpu6050.c ****     if (MPU_IICreadByte(dev, reg, &b) != 0) {
 1367              		.loc 1 259 5 is_stmt 1 view .LVU325
 260:Core/Src/mpu6050.c ****         uint8_t mask = (0xFF << (bitStart + 1)) | 0xFF >> ((8 - bitStart) + length - 1);
ARM GAS  C:\Users\Mr.Zhu\AppData\Local\Temp\ccS7Rdda.s 			page 35


 1368              		.loc 1 260 5 view .LVU326
 260:Core/Src/mpu6050.c ****         uint8_t mask = (0xFF << (bitStart + 1)) | 0xFF >> ((8 - bitStart) + length - 1);
 1369              		.loc 1 260 9 is_stmt 0 view .LVU327
 1370 000c 0DF10702 		add	r2, sp, #7
 1371              	.LVL121:
 260:Core/Src/mpu6050.c ****         uint8_t mask = (0xFF << (bitStart + 1)) | 0xFF >> ((8 - bitStart) + length - 1);
 1372              		.loc 1 260 9 view .LVU328
 1373 0010 FFF7FEFF 		bl	MPU_IICreadByte
 1374              	.LVL122:
 260:Core/Src/mpu6050.c ****         uint8_t mask = (0xFF << (bitStart + 1)) | 0xFF >> ((8 - bitStart) + length - 1);
 1375              		.loc 1 260 8 view .LVU329
 1376 0014 08B9     		cbnz	r0, .L95
 1377              	.LVL123:
 1378              	.L93:
 270:Core/Src/mpu6050.c **** 
 1379              		.loc 1 270 1 view .LVU330
 1380 0016 03B0     		add	sp, sp, #12
 1381              	.LCFI27:
 1382              		.cfi_remember_state
 1383              		.cfi_def_cfa_offset 20
 1384              		@ sp needed
 1385 0018 F0BD     		pop	{r4, r5, r6, r7, pc}
 1386              	.LVL124:
 1387              	.L95:
 1388              	.LCFI28:
 1389              		.cfi_restore_state
 1390              	.LBB2:
 261:Core/Src/mpu6050.c ****         data <<= (8 - length);
 1391              		.loc 1 261 9 is_stmt 1 view .LVU331
 261:Core/Src/mpu6050.c ****         data <<= (8 - length);
 1392              		.loc 1 261 43 is_stmt 0 view .LVU332
 1393 001a 621C     		adds	r2, r4, #1
 261:Core/Src/mpu6050.c ****         data <<= (8 - length);
 1394              		.loc 1 261 30 view .LVU333
 1395 001c FF21     		movs	r1, #255
 1396 001e 01FA02F2 		lsl	r2, r1, r2
 261:Core/Src/mpu6050.c ****         data <<= (8 - length);
 1397              		.loc 1 261 63 view .LVU334
 1398 0022 C4F10803 		rsb	r3, r4, #8
 261:Core/Src/mpu6050.c ****         data <<= (8 - length);
 1399              		.loc 1 261 75 view .LVU335
 1400 0026 2B44     		add	r3, r3, r5
 261:Core/Src/mpu6050.c ****         data <<= (8 - length);
 1401              		.loc 1 261 84 view .LVU336
 1402 0028 013B     		subs	r3, r3, #1
 261:Core/Src/mpu6050.c ****         data <<= (8 - length);
 1403              		.loc 1 261 56 view .LVU337
 1404 002a 41FA03F3 		asr	r3, r1, r3
 261:Core/Src/mpu6050.c ****         data <<= (8 - length);
 1405              		.loc 1 261 49 view .LVU338
 1406 002e 1A43     		orrs	r2, r2, r3
 1407              	.LVL125:
 262:Core/Src/mpu6050.c ****         data >>= (7 - bitStart);
 1408              		.loc 1 262 9 is_stmt 1 view .LVU339
 262:Core/Src/mpu6050.c ****         data >>= (7 - bitStart);
 1409              		.loc 1 262 21 is_stmt 0 view .LVU340
 1410 0030 C5F10805 		rsb	r5, r5, #8
ARM GAS  C:\Users\Mr.Zhu\AppData\Local\Temp\ccS7Rdda.s 			page 36


 262:Core/Src/mpu6050.c ****         data >>= (7 - bitStart);
 1411              		.loc 1 262 14 view .LVU341
 1412 0034 9DF82010 		ldrb	r1, [sp, #32]	@ zero_extendqisi2
 1413 0038 01FA05F5 		lsl	r5, r1, r5
 1414              	.LVL126:
 263:Core/Src/mpu6050.c ****         b &= mask;
 1415              		.loc 1 263 9 is_stmt 1 view .LVU342
 263:Core/Src/mpu6050.c ****         b &= mask;
 1416              		.loc 1 263 21 is_stmt 0 view .LVU343
 1417 003c C4F10703 		rsb	r3, r4, #7
 263:Core/Src/mpu6050.c ****         b &= mask;
 1418              		.loc 1 263 14 view .LVU344
 1419 0040 ECB2     		uxtb	r4, r5
 1420 0042 1C41     		asrs	r4, r4, r3
 1421 0044 E4B2     		uxtb	r4, r4
 1422              	.LVL127:
 264:Core/Src/mpu6050.c ****         b |= data;
 1423              		.loc 1 264 9 is_stmt 1 view .LVU345
 264:Core/Src/mpu6050.c ****         b |= data;
 1424              		.loc 1 264 11 is_stmt 0 view .LVU346
 1425 0046 9DF80730 		ldrb	r3, [sp, #7]	@ zero_extendqisi2
 1426 004a 1A40     		ands	r2, r2, r3
 1427              	.LVL128:
 264:Core/Src/mpu6050.c ****         b |= data;
 1428              		.loc 1 264 11 view .LVU347
 1429 004c 8DF80720 		strb	r2, [sp, #7]
 265:Core/Src/mpu6050.c ****         return MPU_IICwriteByte(dev, reg, b);
 1430              		.loc 1 265 9 is_stmt 1 view .LVU348
 265:Core/Src/mpu6050.c ****         return MPU_IICwriteByte(dev, reg, b);
 1431              		.loc 1 265 11 is_stmt 0 view .LVU349
 1432 0050 2243     		orrs	r2, r2, r4
 1433 0052 8DF80720 		strb	r2, [sp, #7]
 266:Core/Src/mpu6050.c ****     } else {
 1434              		.loc 1 266 9 is_stmt 1 view .LVU350
 266:Core/Src/mpu6050.c ****     } else {
 1435              		.loc 1 266 16 is_stmt 0 view .LVU351
 1436 0056 3946     		mov	r1, r7
 1437 0058 3046     		mov	r0, r6
 1438 005a FFF7FEFF 		bl	MPU_IICwriteByte
 1439              	.LVL129:
 1440 005e DAE7     		b	.L93
 1441              	.LBE2:
 1442              		.cfi_endproc
 1443              	.LFE80:
 1445              		.section	.text.MPU6050_setClockSource,"ax",%progbits
 1446              		.align	1
 1447              		.syntax unified
 1448              		.thumb
 1449              		.thumb_func
 1450              		.fpu softvfp
 1452              	MPU6050_setClockSource:
 1453              	.LVL130:
 1454              	.LFB82:
 346:Core/Src/mpu6050.c ****     MPU_IICwriteBits(0x68, 0x6B, 2, 3, source);
 1455              		.loc 1 346 52 is_stmt 1 view -0
 1456              		.cfi_startproc
 1457              		@ args = 0, pretend = 0, frame = 0
ARM GAS  C:\Users\Mr.Zhu\AppData\Local\Temp\ccS7Rdda.s 			page 37


 1458              		@ frame_needed = 0, uses_anonymous_args = 0
 346:Core/Src/mpu6050.c ****     MPU_IICwriteBits(0x68, 0x6B, 2, 3, source);
 1459              		.loc 1 346 52 is_stmt 0 view .LVU353
 1460 0000 00B5     		push	{lr}
 1461              	.LCFI29:
 1462              		.cfi_def_cfa_offset 4
 1463              		.cfi_offset 14, -4
 1464 0002 83B0     		sub	sp, sp, #12
 1465              	.LCFI30:
 1466              		.cfi_def_cfa_offset 16
 347:Core/Src/mpu6050.c **** }
 1467              		.loc 1 347 5 is_stmt 1 view .LVU354
 1468 0004 0090     		str	r0, [sp]
 1469 0006 0323     		movs	r3, #3
 1470 0008 0222     		movs	r2, #2
 1471 000a 6B21     		movs	r1, #107
 1472 000c 6820     		movs	r0, #104
 1473              	.LVL131:
 347:Core/Src/mpu6050.c **** }
 1474              		.loc 1 347 5 is_stmt 0 view .LVU355
 1475 000e FFF7FEFF 		bl	MPU_IICwriteBits
 1476              	.LVL132:
 348:Core/Src/mpu6050.c **** 
 1477              		.loc 1 348 1 view .LVU356
 1478 0012 03B0     		add	sp, sp, #12
 1479              	.LCFI31:
 1480              		.cfi_def_cfa_offset 4
 1481              		@ sp needed
 1482 0014 5DF804FB 		ldr	pc, [sp], #4
 1483              		.cfi_endproc
 1484              	.LFE82:
 1486              		.section	.text.MPU6050_set_Gyro_Accel_outRange,"ax",%progbits
 1487              		.align	1
 1488              		.syntax unified
 1489              		.thumb
 1490              		.thumb_func
 1491              		.fpu softvfp
 1493              	MPU6050_set_Gyro_Accel_outRange:
 1494              	.LVL133:
 1495              	.LFB86:
 365:Core/Src/mpu6050.c ****     MPU_IICwriteBits(0x68, 0x6C, 5, 6, range);
 1496              		.loc 1 365 60 is_stmt 1 view -0
 1497              		.cfi_startproc
 1498              		@ args = 0, pretend = 0, frame = 0
 1499              		@ frame_needed = 0, uses_anonymous_args = 0
 365:Core/Src/mpu6050.c ****     MPU_IICwriteBits(0x68, 0x6C, 5, 6, range);
 1500              		.loc 1 365 60 is_stmt 0 view .LVU358
 1501 0000 00B5     		push	{lr}
 1502              	.LCFI32:
 1503              		.cfi_def_cfa_offset 4
 1504              		.cfi_offset 14, -4
 1505 0002 83B0     		sub	sp, sp, #12
 1506              	.LCFI33:
 1507              		.cfi_def_cfa_offset 16
 366:Core/Src/mpu6050.c **** }
 1508              		.loc 1 366 5 is_stmt 1 view .LVU359
 1509 0004 0090     		str	r0, [sp]
ARM GAS  C:\Users\Mr.Zhu\AppData\Local\Temp\ccS7Rdda.s 			page 38


 1510 0006 0623     		movs	r3, #6
 1511 0008 0522     		movs	r2, #5
 1512 000a 6C21     		movs	r1, #108
 1513 000c 6820     		movs	r0, #104
 1514              	.LVL134:
 366:Core/Src/mpu6050.c **** }
 1515              		.loc 1 366 5 is_stmt 0 view .LVU360
 1516 000e FFF7FEFF 		bl	MPU_IICwriteBits
 1517              	.LVL135:
 367:Core/Src/mpu6050.c **** 
 1518              		.loc 1 367 1 view .LVU361
 1519 0012 03B0     		add	sp, sp, #12
 1520              	.LCFI34:
 1521              		.cfi_def_cfa_offset 4
 1522              		@ sp needed
 1523 0014 5DF804FB 		ldr	pc, [sp], #4
 1524              		.cfi_endproc
 1525              	.LFE86:
 1527              		.section	.text.MPU6050_setFullScaleGyroRange,"ax",%progbits
 1528              		.align	1
 1529              		.syntax unified
 1530              		.thumb
 1531              		.thumb_func
 1532              		.fpu softvfp
 1534              	MPU6050_setFullScaleGyroRange:
 1535              	.LVL136:
 1536              	.LFB83:
 350:Core/Src/mpu6050.c ****     MPU_IICwriteBits(0x68, 0x1B, 4, 2, range);
 1537              		.loc 1 350 58 is_stmt 1 view -0
 1538              		.cfi_startproc
 1539              		@ args = 0, pretend = 0, frame = 0
 1540              		@ frame_needed = 0, uses_anonymous_args = 0
 350:Core/Src/mpu6050.c ****     MPU_IICwriteBits(0x68, 0x1B, 4, 2, range);
 1541              		.loc 1 350 58 is_stmt 0 view .LVU363
 1542 0000 00B5     		push	{lr}
 1543              	.LCFI35:
 1544              		.cfi_def_cfa_offset 4
 1545              		.cfi_offset 14, -4
 1546 0002 83B0     		sub	sp, sp, #12
 1547              	.LCFI36:
 1548              		.cfi_def_cfa_offset 16
 351:Core/Src/mpu6050.c **** }
 1549              		.loc 1 351 5 is_stmt 1 view .LVU364
 1550 0004 0090     		str	r0, [sp]
 1551 0006 0223     		movs	r3, #2
 1552 0008 0422     		movs	r2, #4
 1553 000a 1B21     		movs	r1, #27
 1554 000c 6820     		movs	r0, #104
 1555              	.LVL137:
 351:Core/Src/mpu6050.c **** }
 1556              		.loc 1 351 5 is_stmt 0 view .LVU365
 1557 000e FFF7FEFF 		bl	MPU_IICwriteBits
 1558              	.LVL138:
 352:Core/Src/mpu6050.c **** 
 1559              		.loc 1 352 1 view .LVU366
 1560 0012 03B0     		add	sp, sp, #12
 1561              	.LCFI37:
ARM GAS  C:\Users\Mr.Zhu\AppData\Local\Temp\ccS7Rdda.s 			page 39


 1562              		.cfi_def_cfa_offset 4
 1563              		@ sp needed
 1564 0014 5DF804FB 		ldr	pc, [sp], #4
 1565              		.cfi_endproc
 1566              	.LFE83:
 1568              		.section	.text.MPU6050_setFullScaleAccelRange,"ax",%progbits
 1569              		.align	1
 1570              		.syntax unified
 1571              		.thumb
 1572              		.thumb_func
 1573              		.fpu softvfp
 1575              	MPU6050_setFullScaleAccelRange:
 1576              	.LVL139:
 1577              	.LFB84:
 354:Core/Src/mpu6050.c ****     MPU_IICwriteBits(0x68, 0x1C, 4, 2, range);
 1578              		.loc 1 354 59 is_stmt 1 view -0
 1579              		.cfi_startproc
 1580              		@ args = 0, pretend = 0, frame = 0
 1581              		@ frame_needed = 0, uses_anonymous_args = 0
 354:Core/Src/mpu6050.c ****     MPU_IICwriteBits(0x68, 0x1C, 4, 2, range);
 1582              		.loc 1 354 59 is_stmt 0 view .LVU368
 1583 0000 00B5     		push	{lr}
 1584              	.LCFI38:
 1585              		.cfi_def_cfa_offset 4
 1586              		.cfi_offset 14, -4
 1587 0002 83B0     		sub	sp, sp, #12
 1588              	.LCFI39:
 1589              		.cfi_def_cfa_offset 16
 355:Core/Src/mpu6050.c **** }
 1590              		.loc 1 355 5 is_stmt 1 view .LVU369
 1591 0004 0090     		str	r0, [sp]
 1592 0006 0223     		movs	r3, #2
 1593 0008 0422     		movs	r2, #4
 1594 000a 1C21     		movs	r1, #28
 1595 000c 6820     		movs	r0, #104
 1596              	.LVL140:
 355:Core/Src/mpu6050.c **** }
 1597              		.loc 1 355 5 is_stmt 0 view .LVU370
 1598 000e FFF7FEFF 		bl	MPU_IICwriteBits
 1599              	.LVL141:
 356:Core/Src/mpu6050.c **** 
 1600              		.loc 1 356 1 view .LVU371
 1601 0012 03B0     		add	sp, sp, #12
 1602              	.LCFI40:
 1603              		.cfi_def_cfa_offset 4
 1604              		@ sp needed
 1605 0014 5DF804FB 		ldr	pc, [sp], #4
 1606              		.cfi_endproc
 1607              	.LFE84:
 1609              		.section	.text.MPU6050_set_Gyro_DLPF_outRange,"ax",%progbits
 1610              		.align	1
 1611              		.syntax unified
 1612              		.thumb
 1613              		.thumb_func
 1614              		.fpu softvfp
 1616              	MPU6050_set_Gyro_DLPF_outRange:
 1617              	.LVL142:
ARM GAS  C:\Users\Mr.Zhu\AppData\Local\Temp\ccS7Rdda.s 			page 40


 1618              	.LFB88:
 373:Core/Src/mpu6050.c ****     MPU_IICwriteBits(0x68, 0x1A, 2, 3, range);
 1619              		.loc 1 373 59 is_stmt 1 view -0
 1620              		.cfi_startproc
 1621              		@ args = 0, pretend = 0, frame = 0
 1622              		@ frame_needed = 0, uses_anonymous_args = 0
 373:Core/Src/mpu6050.c ****     MPU_IICwriteBits(0x68, 0x1A, 2, 3, range);
 1623              		.loc 1 373 59 is_stmt 0 view .LVU373
 1624 0000 00B5     		push	{lr}
 1625              	.LCFI41:
 1626              		.cfi_def_cfa_offset 4
 1627              		.cfi_offset 14, -4
 1628 0002 83B0     		sub	sp, sp, #12
 1629              	.LCFI42:
 1630              		.cfi_def_cfa_offset 16
 374:Core/Src/mpu6050.c **** }
 1631              		.loc 1 374 5 is_stmt 1 view .LVU374
 1632 0004 0090     		str	r0, [sp]
 1633 0006 0323     		movs	r3, #3
 1634 0008 0222     		movs	r2, #2
 1635 000a 1A21     		movs	r1, #26
 1636 000c 6820     		movs	r0, #104
 1637              	.LVL143:
 374:Core/Src/mpu6050.c **** }
 1638              		.loc 1 374 5 is_stmt 0 view .LVU375
 1639 000e FFF7FEFF 		bl	MPU_IICwriteBits
 1640              	.LVL144:
 375:Core/Src/mpu6050.c **** 
 1641              		.loc 1 375 1 view .LVU376
 1642 0012 03B0     		add	sp, sp, #12
 1643              	.LCFI43:
 1644              		.cfi_def_cfa_offset 4
 1645              		@ sp needed
 1646 0014 5DF804FB 		ldr	pc, [sp], #4
 1647              		.cfi_endproc
 1648              	.LFE88:
 1650              		.section	.text.MPU6050_initialize,"ax",%progbits
 1651              		.align	1
 1652              		.global	MPU6050_initialize
 1653              		.syntax unified
 1654              		.thumb
 1655              		.thumb_func
 1656              		.fpu softvfp
 1658              	MPU6050_initialize:
 1659              	.LFB94:
 405:Core/Src/mpu6050.c **** 
 406:Core/Src/mpu6050.c **** 
 407:Core/Src/mpu6050.c **** extern void MPU6050_initialize(void) {
 1660              		.loc 1 407 38 is_stmt 1 view -0
 1661              		.cfi_startproc
 1662              		@ args = 0, pretend = 0, frame = 0
 1663              		@ frame_needed = 0, uses_anonymous_args = 0
 1664 0000 08B5     		push	{r3, lr}
 1665              	.LCFI44:
 1666              		.cfi_def_cfa_offset 8
 1667              		.cfi_offset 3, -8
 1668              		.cfi_offset 14, -4
ARM GAS  C:\Users\Mr.Zhu\AppData\Local\Temp\ccS7Rdda.s 			page 41


 408:Core/Src/mpu6050.c **** 	MPU6050_testConnection();     //检测MPU6050 是否已经连接
 1669              		.loc 1 408 2 view .LVU378
 1670 0002 FFF7FEFF 		bl	MPU6050_testConnection
 1671              	.LVL145:
 409:Core/Src/mpu6050.c **** 	MPU6050_resetEnabled(1);   //复位mpu6050  需延时100ms
 1672              		.loc 1 409 2 view .LVU379
 1673 0006 0120     		movs	r0, #1
 1674 0008 FFF7FEFF 		bl	MPU6050_resetEnabled
 1675              	.LVL146:
 410:Core/Src/mpu6050.c ****     MPU6050_setClockSource(2); //设置时钟
 1676              		.loc 1 410 5 view .LVU380
 1677 000c 0220     		movs	r0, #2
 1678 000e FFF7FEFF 		bl	MPU6050_setClockSource
 1679              	.LVL147:
 411:Core/Src/mpu6050.c **** 	MPU6050_set_Gyro_Accel_outRange(0);  // 设置输出三轴陀螺仪和三轴加速度数据
 1680              		.loc 1 411 2 view .LVU381
 1681 0012 0020     		movs	r0, #0
 1682 0014 FFF7FEFF 		bl	MPU6050_set_Gyro_Accel_outRange
 1683              	.LVL148:
 412:Core/Src/mpu6050.c **** 	MPU6050_INT_Disabled(0);    //禁止中断
 1684              		.loc 1 412 2 view .LVU382
 1685 0018 0020     		movs	r0, #0
 1686 001a FFF7FEFF 		bl	MPU6050_INT_Disabled
 1687              	.LVL149:
 413:Core/Src/mpu6050.c **** 	MPU6050_set_SMPRT_DIV(0);   //采样分频
 1688              		.loc 1 413 2 view .LVU383
 1689 001e 0020     		movs	r0, #0
 1690 0020 FFF7FEFF 		bl	MPU6050_set_SMPRT_DIV
 1691              	.LVL150:
 414:Core/Src/mpu6050.c ****     MPU6050_setFullScaleGyroRange(3);//陀螺仪最大量程 +-1000度每秒
 1692              		.loc 1 414 5 view .LVU384
 1693 0024 0320     		movs	r0, #3
 1694 0026 FFF7FEFF 		bl	MPU6050_setFullScaleGyroRange
 1695              	.LVL151:
 415:Core/Src/mpu6050.c ****     MPU6050_setFullScaleAccelRange(0);	//加速度度最大量程 +-2G
 1696              		.loc 1 415 5 view .LVU385
 1697 002a 0020     		movs	r0, #0
 1698 002c FFF7FEFF 		bl	MPU6050_setFullScaleAccelRange
 1699              	.LVL152:
 416:Core/Src/mpu6050.c ****   	MPU6050_set_Gyro_DLPF_outRange(2);  //设置陀螺仪和加速度计的低通滤波器
 1700              		.loc 1 416 4 view .LVU386
 1701 0030 0220     		movs	r0, #2
 1702 0032 FFF7FEFF 		bl	MPU6050_set_Gyro_DLPF_outRange
 1703              	.LVL153:
 417:Core/Src/mpu6050.c ****     MPU6050_setSleepEnabled(0); //进入工作状态
 1704              		.loc 1 417 5 view .LVU387
 1705 0036 0020     		movs	r0, #0
 1706 0038 FFF7FEFF 		bl	MPU6050_setSleepEnabled
 1707              	.LVL154:
 418:Core/Src/mpu6050.c **** 	MPU6050_setI2CMasterModeEnabled(0);	 //不让MPU6050 控制AUXI2C
 1708              		.loc 1 418 2 view .LVU388
 1709 003c 0020     		movs	r0, #0
 1710 003e FFF7FEFF 		bl	MPU6050_setI2CMasterModeEnabled
 1711              	.LVL155:
 419:Core/Src/mpu6050.c **** 	MPU6050_setI2CBypassEnabled(1);	 //主控制器的I2C与	MPU6050的AUXI2C	直通。控制器可以
 1712              		.loc 1 419 2 view .LVU389
 1713 0042 0120     		movs	r0, #1
ARM GAS  C:\Users\Mr.Zhu\AppData\Local\Temp\ccS7Rdda.s 			page 42


 1714 0044 FFF7FEFF 		bl	MPU6050_setI2CBypassEnabled
 1715              	.LVL156:
 420:Core/Src/mpu6050.c **** }
 1716              		.loc 1 420 1 is_stmt 0 view .LVU390
 1717 0048 08BD     		pop	{r3, pc}
 1718              		.cfi_endproc
 1719              	.LFE94:
 1721              		.global	buffer
 1722              		.section	.bss.buffer,"aw",%nobits
 1723              		.align	2
 1724              		.set	.LANCHOR0,. + 0
 1727              	buffer:
 1728 0000 00000000 		.space	14
 1728      00000000 
 1728      00000000 
 1728      0000
 1729              		.text
 1730              	.Letext0:
 1731              		.file 2 "e:\\clion\\gcc-arm-none-eabi\\10 2020-q4-major\\arm-none-eabi\\include\\machine\\_default
 1732              		.file 3 "e:\\clion\\gcc-arm-none-eabi\\10 2020-q4-major\\arm-none-eabi\\include\\sys\\_stdint.h"
 1733              		.file 4 "Drivers/CMSIS/Device/ST/STM32F1xx/Include/stm32f103xb.h"
 1734              		.file 5 "e:\\clion\\gcc-arm-none-eabi\\10 2020-q4-major\\arm-none-eabi\\include\\stdio.h"
 1735              		.file 6 "Drivers/STM32F1xx_HAL_Driver/Inc/stm32f1xx_hal.h"
 1736              		.file 7 "Core/Inc/tim.h"
ARM GAS  C:\Users\Mr.Zhu\AppData\Local\Temp\ccS7Rdda.s 			page 43

