ARM GAS  C:\Users\Mr.Zhu\AppData\Local\Temp\cciZmzjh.s 			page 1


   1              		.cpu cortex-m3
   2              		.eabi_attribute 20, 1
   3              		.eabi_attribute 21, 1
   4              		.eabi_attribute 23, 3
   5              		.eabi_attribute 24, 1
   6              		.eabi_attribute 25, 1
   7              		.eabi_attribute 26, 1
   8              		.eabi_attribute 30, 1
   9              		.eabi_attribute 34, 1
  10              		.eabi_attribute 18, 4
  11              		.file	"usart.c"
  12              		.text
  13              	.Ltext0:
  14              		.cfi_sections	.debug_frame
  15              		.section	.text.MX_USART1_UART_Init,"ax",%progbits
  16              		.align	1
  17              		.global	MX_USART1_UART_Init
  18              		.arch armv7-m
  19              		.syntax unified
  20              		.thumb
  21              		.thumb_func
  22              		.fpu softvfp
  24              	MX_USART1_UART_Init:
  25              	.LFB68:
  26              		.file 1 "Core/Src/usart.c"
   1:Core/Src/usart.c **** /**
   2:Core/Src/usart.c ****   ******************************************************************************
   3:Core/Src/usart.c ****   * File Name          : USART.c
   4:Core/Src/usart.c ****   * Description        : This file provides code for the configuration
   5:Core/Src/usart.c ****   *                      of the USART instances.
   6:Core/Src/usart.c ****   ******************************************************************************
   7:Core/Src/usart.c ****   * @attention
   8:Core/Src/usart.c ****   *
   9:Core/Src/usart.c ****   * <h2><center>&copy; Copyright (c) 2022 STMicroelectronics.
  10:Core/Src/usart.c ****   * All rights reserved.</center></h2>
  11:Core/Src/usart.c ****   *
  12:Core/Src/usart.c ****   * This software component is licensed by ST under BSD 3-Clause license,
  13:Core/Src/usart.c ****   * the "License"; You may not use this file except in compliance with the
  14:Core/Src/usart.c ****   * License. You may obtain a copy of the License at:
  15:Core/Src/usart.c ****   *                        opensource.org/licenses/BSD-3-Clause
  16:Core/Src/usart.c ****   *
  17:Core/Src/usart.c ****   ******************************************************************************
  18:Core/Src/usart.c ****   */
  19:Core/Src/usart.c **** 
  20:Core/Src/usart.c **** /* Includes ------------------------------------------------------------------*/
  21:Core/Src/usart.c **** #include "usart.h"
  22:Core/Src/usart.c **** 
  23:Core/Src/usart.c **** /* USER CODE BEGIN 0 */
  24:Core/Src/usart.c **** 
  25:Core/Src/usart.c **** #include <stdio.h>
  26:Core/Src/usart.c **** #include <string.h>
  27:Core/Src/usart.c **** /* USER CODE END 0 */
  28:Core/Src/usart.c **** 
  29:Core/Src/usart.c **** UART_HandleTypeDef huart1;
  30:Core/Src/usart.c **** UART_HandleTypeDef huart3;
  31:Core/Src/usart.c **** 
  32:Core/Src/usart.c **** /* USART1 init function */
ARM GAS  C:\Users\Mr.Zhu\AppData\Local\Temp\cciZmzjh.s 			page 2


  33:Core/Src/usart.c **** 
  34:Core/Src/usart.c **** void MX_USART1_UART_Init(void)
  35:Core/Src/usart.c **** {
  27              		.loc 1 35 1 view -0
  28              		.cfi_startproc
  29              		@ args = 0, pretend = 0, frame = 0
  30              		@ frame_needed = 0, uses_anonymous_args = 0
  31 0000 08B5     		push	{r3, lr}
  32              	.LCFI0:
  33              		.cfi_def_cfa_offset 8
  34              		.cfi_offset 3, -8
  35              		.cfi_offset 14, -4
  36:Core/Src/usart.c **** 
  37:Core/Src/usart.c ****   huart1.Instance = USART1;
  36              		.loc 1 37 3 view .LVU1
  37              		.loc 1 37 19 is_stmt 0 view .LVU2
  38 0002 0A48     		ldr	r0, .L5
  39 0004 0A4B     		ldr	r3, .L5+4
  40 0006 0360     		str	r3, [r0]
  38:Core/Src/usart.c ****   huart1.Init.BaudRate = 500000;
  41              		.loc 1 38 3 is_stmt 1 view .LVU3
  42              		.loc 1 38 24 is_stmt 0 view .LVU4
  43 0008 0A4B     		ldr	r3, .L5+8
  44 000a 4360     		str	r3, [r0, #4]
  39:Core/Src/usart.c ****   huart1.Init.WordLength = UART_WORDLENGTH_8B;
  45              		.loc 1 39 3 is_stmt 1 view .LVU5
  46              		.loc 1 39 26 is_stmt 0 view .LVU6
  47 000c 0023     		movs	r3, #0
  48 000e 8360     		str	r3, [r0, #8]
  40:Core/Src/usart.c ****   huart1.Init.StopBits = UART_STOPBITS_1;
  49              		.loc 1 40 3 is_stmt 1 view .LVU7
  50              		.loc 1 40 24 is_stmt 0 view .LVU8
  51 0010 C360     		str	r3, [r0, #12]
  41:Core/Src/usart.c ****   huart1.Init.Parity = UART_PARITY_NONE;
  52              		.loc 1 41 3 is_stmt 1 view .LVU9
  53              		.loc 1 41 22 is_stmt 0 view .LVU10
  54 0012 0361     		str	r3, [r0, #16]
  42:Core/Src/usart.c ****   huart1.Init.Mode = UART_MODE_TX_RX;
  55              		.loc 1 42 3 is_stmt 1 view .LVU11
  56              		.loc 1 42 20 is_stmt 0 view .LVU12
  57 0014 0C22     		movs	r2, #12
  58 0016 4261     		str	r2, [r0, #20]
  43:Core/Src/usart.c ****   huart1.Init.HwFlowCtl = UART_HWCONTROL_NONE;
  59              		.loc 1 43 3 is_stmt 1 view .LVU13
  60              		.loc 1 43 25 is_stmt 0 view .LVU14
  61 0018 8361     		str	r3, [r0, #24]
  44:Core/Src/usart.c ****   huart1.Init.OverSampling = UART_OVERSAMPLING_16;
  62              		.loc 1 44 3 is_stmt 1 view .LVU15
  63              		.loc 1 44 28 is_stmt 0 view .LVU16
  64 001a C361     		str	r3, [r0, #28]
  45:Core/Src/usart.c ****   if (HAL_UART_Init(&huart1) != HAL_OK)
  65              		.loc 1 45 3 is_stmt 1 view .LVU17
  66              		.loc 1 45 7 is_stmt 0 view .LVU18
  67 001c FFF7FEFF 		bl	HAL_UART_Init
  68              	.LVL0:
  69              		.loc 1 45 6 view .LVU19
  70 0020 00B9     		cbnz	r0, .L4
ARM GAS  C:\Users\Mr.Zhu\AppData\Local\Temp\cciZmzjh.s 			page 3


  71              	.L1:
  46:Core/Src/usart.c ****   {
  47:Core/Src/usart.c ****     Error_Handler();
  48:Core/Src/usart.c ****   }
  49:Core/Src/usart.c **** 
  50:Core/Src/usart.c **** }
  72              		.loc 1 50 1 view .LVU20
  73 0022 08BD     		pop	{r3, pc}
  74              	.L4:
  47:Core/Src/usart.c ****   }
  75              		.loc 1 47 5 is_stmt 1 view .LVU21
  76 0024 FFF7FEFF 		bl	Error_Handler
  77              	.LVL1:
  78              		.loc 1 50 1 is_stmt 0 view .LVU22
  79 0028 FBE7     		b	.L1
  80              	.L6:
  81 002a 00BF     		.align	2
  82              	.L5:
  83 002c 00000000 		.word	.LANCHOR0
  84 0030 00380140 		.word	1073821696
  85 0034 20A10700 		.word	500000
  86              		.cfi_endproc
  87              	.LFE68:
  89              		.section	.text.MX_USART3_UART_Init,"ax",%progbits
  90              		.align	1
  91              		.global	MX_USART3_UART_Init
  92              		.syntax unified
  93              		.thumb
  94              		.thumb_func
  95              		.fpu softvfp
  97              	MX_USART3_UART_Init:
  98              	.LFB69:
  51:Core/Src/usart.c **** /* USART3 init function */
  52:Core/Src/usart.c **** 
  53:Core/Src/usart.c **** void MX_USART3_UART_Init(void)
  54:Core/Src/usart.c **** {
  99              		.loc 1 54 1 is_stmt 1 view -0
 100              		.cfi_startproc
 101              		@ args = 0, pretend = 0, frame = 0
 102              		@ frame_needed = 0, uses_anonymous_args = 0
 103 0000 08B5     		push	{r3, lr}
 104              	.LCFI1:
 105              		.cfi_def_cfa_offset 8
 106              		.cfi_offset 3, -8
 107              		.cfi_offset 14, -4
  55:Core/Src/usart.c ****   
  56:Core/Src/usart.c ****   huart3.Instance = USART3;
 108              		.loc 1 56 3 view .LVU24
 109              		.loc 1 56 19 is_stmt 0 view .LVU25
 110 0002 0A48     		ldr	r0, .L11
 111 0004 0A4B     		ldr	r3, .L11+4
 112 0006 0360     		str	r3, [r0]
  57:Core/Src/usart.c ****   huart3.Init.BaudRate = 500000;
 113              		.loc 1 57 3 is_stmt 1 view .LVU26
 114              		.loc 1 57 24 is_stmt 0 view .LVU27
 115 0008 0A4B     		ldr	r3, .L11+8
 116 000a 4360     		str	r3, [r0, #4]
ARM GAS  C:\Users\Mr.Zhu\AppData\Local\Temp\cciZmzjh.s 			page 4


  58:Core/Src/usart.c ****   huart3.Init.WordLength = UART_WORDLENGTH_8B;
 117              		.loc 1 58 3 is_stmt 1 view .LVU28
 118              		.loc 1 58 26 is_stmt 0 view .LVU29
 119 000c 0023     		movs	r3, #0
 120 000e 8360     		str	r3, [r0, #8]
  59:Core/Src/usart.c ****   huart3.Init.StopBits = UART_STOPBITS_1;
 121              		.loc 1 59 3 is_stmt 1 view .LVU30
 122              		.loc 1 59 24 is_stmt 0 view .LVU31
 123 0010 C360     		str	r3, [r0, #12]
  60:Core/Src/usart.c ****   huart3.Init.Parity = UART_PARITY_NONE;
 124              		.loc 1 60 3 is_stmt 1 view .LVU32
 125              		.loc 1 60 22 is_stmt 0 view .LVU33
 126 0012 0361     		str	r3, [r0, #16]
  61:Core/Src/usart.c ****   huart3.Init.Mode = UART_MODE_TX_RX;
 127              		.loc 1 61 3 is_stmt 1 view .LVU34
 128              		.loc 1 61 20 is_stmt 0 view .LVU35
 129 0014 0C22     		movs	r2, #12
 130 0016 4261     		str	r2, [r0, #20]
  62:Core/Src/usart.c ****   huart3.Init.HwFlowCtl = UART_HWCONTROL_NONE;
 131              		.loc 1 62 3 is_stmt 1 view .LVU36
 132              		.loc 1 62 25 is_stmt 0 view .LVU37
 133 0018 8361     		str	r3, [r0, #24]
  63:Core/Src/usart.c ****   huart3.Init.OverSampling = UART_OVERSAMPLING_16;
 134              		.loc 1 63 3 is_stmt 1 view .LVU38
 135              		.loc 1 63 28 is_stmt 0 view .LVU39
 136 001a C361     		str	r3, [r0, #28]
  64:Core/Src/usart.c ****   if (HAL_UART_Init(&huart3) != HAL_OK)
 137              		.loc 1 64 3 is_stmt 1 view .LVU40
 138              		.loc 1 64 7 is_stmt 0 view .LVU41
 139 001c FFF7FEFF 		bl	HAL_UART_Init
 140              	.LVL2:
 141              		.loc 1 64 6 view .LVU42
 142 0020 00B9     		cbnz	r0, .L10
 143              	.L7:
  65:Core/Src/usart.c ****   {
  66:Core/Src/usart.c ****     Error_Handler();
  67:Core/Src/usart.c ****   }
  68:Core/Src/usart.c **** 
  69:Core/Src/usart.c **** }
 144              		.loc 1 69 1 view .LVU43
 145 0022 08BD     		pop	{r3, pc}
 146              	.L10:
  66:Core/Src/usart.c ****   }
 147              		.loc 1 66 5 is_stmt 1 view .LVU44
 148 0024 FFF7FEFF 		bl	Error_Handler
 149              	.LVL3:
 150              		.loc 1 69 1 is_stmt 0 view .LVU45
 151 0028 FBE7     		b	.L7
 152              	.L12:
 153 002a 00BF     		.align	2
 154              	.L11:
 155 002c 00000000 		.word	.LANCHOR1
 156 0030 00480040 		.word	1073760256
 157 0034 20A10700 		.word	500000
 158              		.cfi_endproc
 159              	.LFE69:
 161              		.section	.text.HAL_UART_MspInit,"ax",%progbits
ARM GAS  C:\Users\Mr.Zhu\AppData\Local\Temp\cciZmzjh.s 			page 5


 162              		.align	1
 163              		.global	HAL_UART_MspInit
 164              		.syntax unified
 165              		.thumb
 166              		.thumb_func
 167              		.fpu softvfp
 169              	HAL_UART_MspInit:
 170              	.LVL4:
 171              	.LFB70:
  70:Core/Src/usart.c **** 
  71:Core/Src/usart.c **** void HAL_UART_MspInit(UART_HandleTypeDef* uartHandle)
  72:Core/Src/usart.c **** {
 172              		.loc 1 72 1 is_stmt 1 view -0
 173              		.cfi_startproc
 174              		@ args = 0, pretend = 0, frame = 32
 175              		@ frame_needed = 0, uses_anonymous_args = 0
 176              		.loc 1 72 1 is_stmt 0 view .LVU47
 177 0000 30B5     		push	{r4, r5, lr}
 178              	.LCFI2:
 179              		.cfi_def_cfa_offset 12
 180              		.cfi_offset 4, -12
 181              		.cfi_offset 5, -8
 182              		.cfi_offset 14, -4
 183 0002 89B0     		sub	sp, sp, #36
 184              	.LCFI3:
 185              		.cfi_def_cfa_offset 48
  73:Core/Src/usart.c **** 
  74:Core/Src/usart.c ****   GPIO_InitTypeDef GPIO_InitStruct = {0};
 186              		.loc 1 74 3 is_stmt 1 view .LVU48
 187              		.loc 1 74 20 is_stmt 0 view .LVU49
 188 0004 0023     		movs	r3, #0
 189 0006 0493     		str	r3, [sp, #16]
 190 0008 0593     		str	r3, [sp, #20]
 191 000a 0693     		str	r3, [sp, #24]
 192 000c 0793     		str	r3, [sp, #28]
  75:Core/Src/usart.c ****   if(uartHandle->Instance==USART1)
 193              		.loc 1 75 3 is_stmt 1 view .LVU50
 194              		.loc 1 75 16 is_stmt 0 view .LVU51
 195 000e 0368     		ldr	r3, [r0]
 196              		.loc 1 75 5 view .LVU52
 197 0010 354A     		ldr	r2, .L19
 198 0012 9342     		cmp	r3, r2
 199 0014 04D0     		beq	.L17
  76:Core/Src/usart.c ****   {
  77:Core/Src/usart.c ****   /* USER CODE BEGIN USART1_MspInit 0 */
  78:Core/Src/usart.c **** 
  79:Core/Src/usart.c ****   /* USER CODE END USART1_MspInit 0 */
  80:Core/Src/usart.c ****     /* USART1 clock enable */
  81:Core/Src/usart.c ****     __HAL_RCC_USART1_CLK_ENABLE();
  82:Core/Src/usart.c ****   
  83:Core/Src/usart.c ****     __HAL_RCC_GPIOA_CLK_ENABLE();
  84:Core/Src/usart.c ****     /**USART1 GPIO Configuration    
  85:Core/Src/usart.c ****     PA9     ------> USART1_TX
  86:Core/Src/usart.c ****     PA10     ------> USART1_RX 
  87:Core/Src/usart.c ****     */
  88:Core/Src/usart.c ****     GPIO_InitStruct.Pin = GPIO_PIN_9;
  89:Core/Src/usart.c ****     GPIO_InitStruct.Mode = GPIO_MODE_AF_PP;
ARM GAS  C:\Users\Mr.Zhu\AppData\Local\Temp\cciZmzjh.s 			page 6


  90:Core/Src/usart.c ****     GPIO_InitStruct.Speed = GPIO_SPEED_FREQ_HIGH;
  91:Core/Src/usart.c ****     HAL_GPIO_Init(GPIOA, &GPIO_InitStruct);
  92:Core/Src/usart.c **** 
  93:Core/Src/usart.c ****     GPIO_InitStruct.Pin = GPIO_PIN_10;
  94:Core/Src/usart.c ****     GPIO_InitStruct.Mode = GPIO_MODE_INPUT;
  95:Core/Src/usart.c ****     GPIO_InitStruct.Pull = GPIO_NOPULL;
  96:Core/Src/usart.c ****     HAL_GPIO_Init(GPIOA, &GPIO_InitStruct);
  97:Core/Src/usart.c **** 
  98:Core/Src/usart.c ****     /* USART1 interrupt Init */
  99:Core/Src/usart.c ****     HAL_NVIC_SetPriority(USART1_IRQn, 0, 1);
 100:Core/Src/usart.c ****     HAL_NVIC_EnableIRQ(USART1_IRQn);
 101:Core/Src/usart.c ****   /* USER CODE BEGIN USART1_MspInit 1 */
 102:Core/Src/usart.c **** 
 103:Core/Src/usart.c ****   /* USER CODE END USART1_MspInit 1 */
 104:Core/Src/usart.c ****   }
 105:Core/Src/usart.c ****   else if(uartHandle->Instance==USART3)
 200              		.loc 1 105 8 is_stmt 1 view .LVU53
 201              		.loc 1 105 10 is_stmt 0 view .LVU54
 202 0016 354A     		ldr	r2, .L19+4
 203 0018 9342     		cmp	r3, r2
 204 001a 33D0     		beq	.L18
 205              	.LVL5:
 206              	.L13:
 106:Core/Src/usart.c ****   {
 107:Core/Src/usart.c ****   /* USER CODE BEGIN USART3_MspInit 0 */
 108:Core/Src/usart.c **** 
 109:Core/Src/usart.c ****   /* USER CODE END USART3_MspInit 0 */
 110:Core/Src/usart.c ****     /* USART3 clock enable */
 111:Core/Src/usart.c ****     __HAL_RCC_USART3_CLK_ENABLE();
 112:Core/Src/usart.c ****   
 113:Core/Src/usart.c ****     __HAL_RCC_GPIOB_CLK_ENABLE();
 114:Core/Src/usart.c ****     /**USART3 GPIO Configuration    
 115:Core/Src/usart.c ****     PB10     ------> USART3_TX
 116:Core/Src/usart.c ****     PB11     ------> USART3_RX 
 117:Core/Src/usart.c ****     */
 118:Core/Src/usart.c ****     GPIO_InitStruct.Pin = GPIO_PIN_10;
 119:Core/Src/usart.c ****     GPIO_InitStruct.Mode = GPIO_MODE_AF_PP;
 120:Core/Src/usart.c ****     GPIO_InitStruct.Speed = GPIO_SPEED_FREQ_HIGH;
 121:Core/Src/usart.c ****     HAL_GPIO_Init(GPIOB, &GPIO_InitStruct);
 122:Core/Src/usart.c **** 
 123:Core/Src/usart.c ****     GPIO_InitStruct.Pin = GPIO_PIN_11;
 124:Core/Src/usart.c ****     GPIO_InitStruct.Mode = GPIO_MODE_INPUT;
 125:Core/Src/usart.c ****     GPIO_InitStruct.Pull = GPIO_NOPULL;
 126:Core/Src/usart.c ****     HAL_GPIO_Init(GPIOB, &GPIO_InitStruct);
 127:Core/Src/usart.c **** 
 128:Core/Src/usart.c ****     /* USART3 interrupt Init */
 129:Core/Src/usart.c ****     HAL_NVIC_SetPriority(USART3_IRQn, 1, 2);
 130:Core/Src/usart.c ****     HAL_NVIC_EnableIRQ(USART3_IRQn);
 131:Core/Src/usart.c ****   /* USER CODE BEGIN USART3_MspInit 1 */
 132:Core/Src/usart.c **** 
 133:Core/Src/usart.c ****   /* USER CODE END USART3_MspInit 1 */
 134:Core/Src/usart.c ****   }
 135:Core/Src/usart.c **** }
 207              		.loc 1 135 1 view .LVU55
 208 001c 09B0     		add	sp, sp, #36
 209              	.LCFI4:
 210              		.cfi_remember_state
ARM GAS  C:\Users\Mr.Zhu\AppData\Local\Temp\cciZmzjh.s 			page 7


 211              		.cfi_def_cfa_offset 12
 212              		@ sp needed
 213 001e 30BD     		pop	{r4, r5, pc}
 214              	.LVL6:
 215              	.L17:
 216              	.LCFI5:
 217              		.cfi_restore_state
  81:Core/Src/usart.c ****   
 218              		.loc 1 81 5 is_stmt 1 view .LVU56
 219              	.LBB2:
  81:Core/Src/usart.c ****   
 220              		.loc 1 81 5 view .LVU57
  81:Core/Src/usart.c ****   
 221              		.loc 1 81 5 view .LVU58
 222 0020 334B     		ldr	r3, .L19+8
 223 0022 9A69     		ldr	r2, [r3, #24]
 224 0024 42F48042 		orr	r2, r2, #16384
 225 0028 9A61     		str	r2, [r3, #24]
  81:Core/Src/usart.c ****   
 226              		.loc 1 81 5 view .LVU59
 227 002a 9A69     		ldr	r2, [r3, #24]
 228 002c 02F48042 		and	r2, r2, #16384
 229 0030 0092     		str	r2, [sp]
  81:Core/Src/usart.c ****   
 230              		.loc 1 81 5 view .LVU60
 231 0032 009A     		ldr	r2, [sp]
 232              	.LBE2:
  81:Core/Src/usart.c ****   
 233              		.loc 1 81 5 view .LVU61
  83:Core/Src/usart.c ****     /**USART1 GPIO Configuration    
 234              		.loc 1 83 5 view .LVU62
 235              	.LBB3:
  83:Core/Src/usart.c ****     /**USART1 GPIO Configuration    
 236              		.loc 1 83 5 view .LVU63
  83:Core/Src/usart.c ****     /**USART1 GPIO Configuration    
 237              		.loc 1 83 5 view .LVU64
 238 0034 9A69     		ldr	r2, [r3, #24]
 239 0036 42F00402 		orr	r2, r2, #4
 240 003a 9A61     		str	r2, [r3, #24]
  83:Core/Src/usart.c ****     /**USART1 GPIO Configuration    
 241              		.loc 1 83 5 view .LVU65
 242 003c 9B69     		ldr	r3, [r3, #24]
 243 003e 03F00403 		and	r3, r3, #4
 244 0042 0193     		str	r3, [sp, #4]
  83:Core/Src/usart.c ****     /**USART1 GPIO Configuration    
 245              		.loc 1 83 5 view .LVU66
 246 0044 019B     		ldr	r3, [sp, #4]
 247              	.LBE3:
  83:Core/Src/usart.c ****     /**USART1 GPIO Configuration    
 248              		.loc 1 83 5 view .LVU67
  88:Core/Src/usart.c ****     GPIO_InitStruct.Mode = GPIO_MODE_AF_PP;
 249              		.loc 1 88 5 view .LVU68
  88:Core/Src/usart.c ****     GPIO_InitStruct.Mode = GPIO_MODE_AF_PP;
 250              		.loc 1 88 25 is_stmt 0 view .LVU69
 251 0046 4FF40073 		mov	r3, #512
 252 004a 0493     		str	r3, [sp, #16]
  89:Core/Src/usart.c ****     GPIO_InitStruct.Speed = GPIO_SPEED_FREQ_HIGH;
ARM GAS  C:\Users\Mr.Zhu\AppData\Local\Temp\cciZmzjh.s 			page 8


 253              		.loc 1 89 5 is_stmt 1 view .LVU70
  89:Core/Src/usart.c ****     GPIO_InitStruct.Speed = GPIO_SPEED_FREQ_HIGH;
 254              		.loc 1 89 26 is_stmt 0 view .LVU71
 255 004c 0223     		movs	r3, #2
 256 004e 0593     		str	r3, [sp, #20]
  90:Core/Src/usart.c ****     HAL_GPIO_Init(GPIOA, &GPIO_InitStruct);
 257              		.loc 1 90 5 is_stmt 1 view .LVU72
  90:Core/Src/usart.c ****     HAL_GPIO_Init(GPIOA, &GPIO_InitStruct);
 258              		.loc 1 90 27 is_stmt 0 view .LVU73
 259 0050 0323     		movs	r3, #3
 260 0052 0793     		str	r3, [sp, #28]
  91:Core/Src/usart.c **** 
 261              		.loc 1 91 5 is_stmt 1 view .LVU74
 262 0054 274D     		ldr	r5, .L19+12
 263 0056 04A9     		add	r1, sp, #16
 264 0058 2846     		mov	r0, r5
 265              	.LVL7:
  91:Core/Src/usart.c **** 
 266              		.loc 1 91 5 is_stmt 0 view .LVU75
 267 005a FFF7FEFF 		bl	HAL_GPIO_Init
 268              	.LVL8:
  93:Core/Src/usart.c ****     GPIO_InitStruct.Mode = GPIO_MODE_INPUT;
 269              		.loc 1 93 5 is_stmt 1 view .LVU76
  93:Core/Src/usart.c ****     GPIO_InitStruct.Mode = GPIO_MODE_INPUT;
 270              		.loc 1 93 25 is_stmt 0 view .LVU77
 271 005e 4FF48063 		mov	r3, #1024
 272 0062 0493     		str	r3, [sp, #16]
  94:Core/Src/usart.c ****     GPIO_InitStruct.Pull = GPIO_NOPULL;
 273              		.loc 1 94 5 is_stmt 1 view .LVU78
  94:Core/Src/usart.c ****     GPIO_InitStruct.Pull = GPIO_NOPULL;
 274              		.loc 1 94 26 is_stmt 0 view .LVU79
 275 0064 0024     		movs	r4, #0
 276 0066 0594     		str	r4, [sp, #20]
  95:Core/Src/usart.c ****     HAL_GPIO_Init(GPIOA, &GPIO_InitStruct);
 277              		.loc 1 95 5 is_stmt 1 view .LVU80
  95:Core/Src/usart.c ****     HAL_GPIO_Init(GPIOA, &GPIO_InitStruct);
 278              		.loc 1 95 26 is_stmt 0 view .LVU81
 279 0068 0694     		str	r4, [sp, #24]
  96:Core/Src/usart.c **** 
 280              		.loc 1 96 5 is_stmt 1 view .LVU82
 281 006a 04A9     		add	r1, sp, #16
 282 006c 2846     		mov	r0, r5
 283 006e FFF7FEFF 		bl	HAL_GPIO_Init
 284              	.LVL9:
  99:Core/Src/usart.c ****     HAL_NVIC_EnableIRQ(USART1_IRQn);
 285              		.loc 1 99 5 view .LVU83
 286 0072 0122     		movs	r2, #1
 287 0074 2146     		mov	r1, r4
 288 0076 2520     		movs	r0, #37
 289 0078 FFF7FEFF 		bl	HAL_NVIC_SetPriority
 290              	.LVL10:
 100:Core/Src/usart.c ****   /* USER CODE BEGIN USART1_MspInit 1 */
 291              		.loc 1 100 5 view .LVU84
 292 007c 2520     		movs	r0, #37
 293 007e FFF7FEFF 		bl	HAL_NVIC_EnableIRQ
 294              	.LVL11:
 295 0082 CBE7     		b	.L13
ARM GAS  C:\Users\Mr.Zhu\AppData\Local\Temp\cciZmzjh.s 			page 9


 296              	.LVL12:
 297              	.L18:
 111:Core/Src/usart.c ****   
 298              		.loc 1 111 5 view .LVU85
 299              	.LBB4:
 111:Core/Src/usart.c ****   
 300              		.loc 1 111 5 view .LVU86
 111:Core/Src/usart.c ****   
 301              		.loc 1 111 5 view .LVU87
 302 0084 1A4B     		ldr	r3, .L19+8
 303 0086 DA69     		ldr	r2, [r3, #28]
 304 0088 42F48022 		orr	r2, r2, #262144
 305 008c DA61     		str	r2, [r3, #28]
 111:Core/Src/usart.c ****   
 306              		.loc 1 111 5 view .LVU88
 307 008e DA69     		ldr	r2, [r3, #28]
 308 0090 02F48022 		and	r2, r2, #262144
 309 0094 0292     		str	r2, [sp, #8]
 111:Core/Src/usart.c ****   
 310              		.loc 1 111 5 view .LVU89
 311 0096 029A     		ldr	r2, [sp, #8]
 312              	.LBE4:
 111:Core/Src/usart.c ****   
 313              		.loc 1 111 5 view .LVU90
 113:Core/Src/usart.c ****     /**USART3 GPIO Configuration    
 314              		.loc 1 113 5 view .LVU91
 315              	.LBB5:
 113:Core/Src/usart.c ****     /**USART3 GPIO Configuration    
 316              		.loc 1 113 5 view .LVU92
 113:Core/Src/usart.c ****     /**USART3 GPIO Configuration    
 317              		.loc 1 113 5 view .LVU93
 318 0098 9A69     		ldr	r2, [r3, #24]
 319 009a 42F00802 		orr	r2, r2, #8
 320 009e 9A61     		str	r2, [r3, #24]
 113:Core/Src/usart.c ****     /**USART3 GPIO Configuration    
 321              		.loc 1 113 5 view .LVU94
 322 00a0 9B69     		ldr	r3, [r3, #24]
 323 00a2 03F00803 		and	r3, r3, #8
 324 00a6 0393     		str	r3, [sp, #12]
 113:Core/Src/usart.c ****     /**USART3 GPIO Configuration    
 325              		.loc 1 113 5 view .LVU95
 326 00a8 039B     		ldr	r3, [sp, #12]
 327              	.LBE5:
 113:Core/Src/usart.c ****     /**USART3 GPIO Configuration    
 328              		.loc 1 113 5 view .LVU96
 118:Core/Src/usart.c ****     GPIO_InitStruct.Mode = GPIO_MODE_AF_PP;
 329              		.loc 1 118 5 view .LVU97
 118:Core/Src/usart.c ****     GPIO_InitStruct.Mode = GPIO_MODE_AF_PP;
 330              		.loc 1 118 25 is_stmt 0 view .LVU98
 331 00aa 4FF48063 		mov	r3, #1024
 332 00ae 0493     		str	r3, [sp, #16]
 119:Core/Src/usart.c ****     GPIO_InitStruct.Speed = GPIO_SPEED_FREQ_HIGH;
 333              		.loc 1 119 5 is_stmt 1 view .LVU99
 119:Core/Src/usart.c ****     GPIO_InitStruct.Speed = GPIO_SPEED_FREQ_HIGH;
 334              		.loc 1 119 26 is_stmt 0 view .LVU100
 335 00b0 0224     		movs	r4, #2
 336 00b2 0594     		str	r4, [sp, #20]
ARM GAS  C:\Users\Mr.Zhu\AppData\Local\Temp\cciZmzjh.s 			page 10


 120:Core/Src/usart.c ****     HAL_GPIO_Init(GPIOB, &GPIO_InitStruct);
 337              		.loc 1 120 5 is_stmt 1 view .LVU101
 120:Core/Src/usart.c ****     HAL_GPIO_Init(GPIOB, &GPIO_InitStruct);
 338              		.loc 1 120 27 is_stmt 0 view .LVU102
 339 00b4 0323     		movs	r3, #3
 340 00b6 0793     		str	r3, [sp, #28]
 121:Core/Src/usart.c **** 
 341              		.loc 1 121 5 is_stmt 1 view .LVU103
 342 00b8 0F4D     		ldr	r5, .L19+16
 343 00ba 04A9     		add	r1, sp, #16
 344 00bc 2846     		mov	r0, r5
 345              	.LVL13:
 121:Core/Src/usart.c **** 
 346              		.loc 1 121 5 is_stmt 0 view .LVU104
 347 00be FFF7FEFF 		bl	HAL_GPIO_Init
 348              	.LVL14:
 123:Core/Src/usart.c ****     GPIO_InitStruct.Mode = GPIO_MODE_INPUT;
 349              		.loc 1 123 5 is_stmt 1 view .LVU105
 123:Core/Src/usart.c ****     GPIO_InitStruct.Mode = GPIO_MODE_INPUT;
 350              		.loc 1 123 25 is_stmt 0 view .LVU106
 351 00c2 4FF40063 		mov	r3, #2048
 352 00c6 0493     		str	r3, [sp, #16]
 124:Core/Src/usart.c ****     GPIO_InitStruct.Pull = GPIO_NOPULL;
 353              		.loc 1 124 5 is_stmt 1 view .LVU107
 124:Core/Src/usart.c ****     GPIO_InitStruct.Pull = GPIO_NOPULL;
 354              		.loc 1 124 26 is_stmt 0 view .LVU108
 355 00c8 0023     		movs	r3, #0
 356 00ca 0593     		str	r3, [sp, #20]
 125:Core/Src/usart.c ****     HAL_GPIO_Init(GPIOB, &GPIO_InitStruct);
 357              		.loc 1 125 5 is_stmt 1 view .LVU109
 125:Core/Src/usart.c ****     HAL_GPIO_Init(GPIOB, &GPIO_InitStruct);
 358              		.loc 1 125 26 is_stmt 0 view .LVU110
 359 00cc 0693     		str	r3, [sp, #24]
 126:Core/Src/usart.c **** 
 360              		.loc 1 126 5 is_stmt 1 view .LVU111
 361 00ce 04A9     		add	r1, sp, #16
 362 00d0 2846     		mov	r0, r5
 363 00d2 FFF7FEFF 		bl	HAL_GPIO_Init
 364              	.LVL15:
 129:Core/Src/usart.c ****     HAL_NVIC_EnableIRQ(USART3_IRQn);
 365              		.loc 1 129 5 view .LVU112
 366 00d6 2246     		mov	r2, r4
 367 00d8 0121     		movs	r1, #1
 368 00da 2720     		movs	r0, #39
 369 00dc FFF7FEFF 		bl	HAL_NVIC_SetPriority
 370              	.LVL16:
 130:Core/Src/usart.c ****   /* USER CODE BEGIN USART3_MspInit 1 */
 371              		.loc 1 130 5 view .LVU113
 372 00e0 2720     		movs	r0, #39
 373 00e2 FFF7FEFF 		bl	HAL_NVIC_EnableIRQ
 374              	.LVL17:
 375              		.loc 1 135 1 is_stmt 0 view .LVU114
 376 00e6 99E7     		b	.L13
 377              	.L20:
 378              		.align	2
 379              	.L19:
 380 00e8 00380140 		.word	1073821696
ARM GAS  C:\Users\Mr.Zhu\AppData\Local\Temp\cciZmzjh.s 			page 11


 381 00ec 00480040 		.word	1073760256
 382 00f0 00100240 		.word	1073876992
 383 00f4 00080140 		.word	1073809408
 384 00f8 000C0140 		.word	1073810432
 385              		.cfi_endproc
 386              	.LFE70:
 388              		.section	.text.HAL_UART_MspDeInit,"ax",%progbits
 389              		.align	1
 390              		.global	HAL_UART_MspDeInit
 391              		.syntax unified
 392              		.thumb
 393              		.thumb_func
 394              		.fpu softvfp
 396              	HAL_UART_MspDeInit:
 397              	.LVL18:
 398              	.LFB71:
 136:Core/Src/usart.c **** 
 137:Core/Src/usart.c **** void HAL_UART_MspDeInit(UART_HandleTypeDef* uartHandle)
 138:Core/Src/usart.c **** {
 399              		.loc 1 138 1 is_stmt 1 view -0
 400              		.cfi_startproc
 401              		@ args = 0, pretend = 0, frame = 0
 402              		@ frame_needed = 0, uses_anonymous_args = 0
 403              		.loc 1 138 1 is_stmt 0 view .LVU116
 404 0000 08B5     		push	{r3, lr}
 405              	.LCFI6:
 406              		.cfi_def_cfa_offset 8
 407              		.cfi_offset 3, -8
 408              		.cfi_offset 14, -4
 139:Core/Src/usart.c **** 
 140:Core/Src/usart.c ****   if(uartHandle->Instance==USART1)
 409              		.loc 1 140 3 is_stmt 1 view .LVU117
 410              		.loc 1 140 16 is_stmt 0 view .LVU118
 411 0002 0368     		ldr	r3, [r0]
 412              		.loc 1 140 5 view .LVU119
 413 0004 124A     		ldr	r2, .L27
 414 0006 9342     		cmp	r3, r2
 415 0008 03D0     		beq	.L25
 141:Core/Src/usart.c ****   {
 142:Core/Src/usart.c ****   /* USER CODE BEGIN USART1_MspDeInit 0 */
 143:Core/Src/usart.c **** 
 144:Core/Src/usart.c ****   /* USER CODE END USART1_MspDeInit 0 */
 145:Core/Src/usart.c ****     /* Peripheral clock disable */
 146:Core/Src/usart.c ****     __HAL_RCC_USART1_CLK_DISABLE();
 147:Core/Src/usart.c ****   
 148:Core/Src/usart.c ****     /**USART1 GPIO Configuration    
 149:Core/Src/usart.c ****     PA9     ------> USART1_TX
 150:Core/Src/usart.c ****     PA10     ------> USART1_RX 
 151:Core/Src/usart.c ****     */
 152:Core/Src/usart.c ****     HAL_GPIO_DeInit(GPIOA, GPIO_PIN_9|GPIO_PIN_10);
 153:Core/Src/usart.c **** 
 154:Core/Src/usart.c ****     /* USART1 interrupt Deinit */
 155:Core/Src/usart.c ****     HAL_NVIC_DisableIRQ(USART1_IRQn);
 156:Core/Src/usart.c ****   /* USER CODE BEGIN USART1_MspDeInit 1 */
 157:Core/Src/usart.c **** 
 158:Core/Src/usart.c ****   /* USER CODE END USART1_MspDeInit 1 */
 159:Core/Src/usart.c ****   }
ARM GAS  C:\Users\Mr.Zhu\AppData\Local\Temp\cciZmzjh.s 			page 12


 160:Core/Src/usart.c ****   else if(uartHandle->Instance==USART3)
 416              		.loc 1 160 8 is_stmt 1 view .LVU120
 417              		.loc 1 160 10 is_stmt 0 view .LVU121
 418 000a 124A     		ldr	r2, .L27+4
 419 000c 9342     		cmp	r3, r2
 420 000e 0FD0     		beq	.L26
 421              	.LVL19:
 422              	.L21:
 161:Core/Src/usart.c ****   {
 162:Core/Src/usart.c ****   /* USER CODE BEGIN USART3_MspDeInit 0 */
 163:Core/Src/usart.c **** 
 164:Core/Src/usart.c ****   /* USER CODE END USART3_MspDeInit 0 */
 165:Core/Src/usart.c ****     /* Peripheral clock disable */
 166:Core/Src/usart.c ****     __HAL_RCC_USART3_CLK_DISABLE();
 167:Core/Src/usart.c ****   
 168:Core/Src/usart.c ****     /**USART3 GPIO Configuration    
 169:Core/Src/usart.c ****     PB10     ------> USART3_TX
 170:Core/Src/usart.c ****     PB11     ------> USART3_RX 
 171:Core/Src/usart.c ****     */
 172:Core/Src/usart.c ****     HAL_GPIO_DeInit(GPIOB, GPIO_PIN_10|GPIO_PIN_11);
 173:Core/Src/usart.c **** 
 174:Core/Src/usart.c ****     /* USART3 interrupt Deinit */
 175:Core/Src/usart.c ****     HAL_NVIC_DisableIRQ(USART3_IRQn);
 176:Core/Src/usart.c ****   /* USER CODE BEGIN USART3_MspDeInit 1 */
 177:Core/Src/usart.c **** 
 178:Core/Src/usart.c ****   /* USER CODE END USART3_MspDeInit 1 */
 179:Core/Src/usart.c ****   }
 180:Core/Src/usart.c **** } 
 423              		.loc 1 180 1 view .LVU122
 424 0010 08BD     		pop	{r3, pc}
 425              	.LVL20:
 426              	.L25:
 146:Core/Src/usart.c ****   
 427              		.loc 1 146 5 is_stmt 1 view .LVU123
 428 0012 02F55842 		add	r2, r2, #55296
 429 0016 9369     		ldr	r3, [r2, #24]
 430 0018 23F48043 		bic	r3, r3, #16384
 431 001c 9361     		str	r3, [r2, #24]
 152:Core/Src/usart.c **** 
 432              		.loc 1 152 5 view .LVU124
 433 001e 4FF4C061 		mov	r1, #1536
 434 0022 0D48     		ldr	r0, .L27+8
 435              	.LVL21:
 152:Core/Src/usart.c **** 
 436              		.loc 1 152 5 is_stmt 0 view .LVU125
 437 0024 FFF7FEFF 		bl	HAL_GPIO_DeInit
 438              	.LVL22:
 155:Core/Src/usart.c ****   /* USER CODE BEGIN USART1_MspDeInit 1 */
 439              		.loc 1 155 5 is_stmt 1 view .LVU126
 440 0028 2520     		movs	r0, #37
 441 002a FFF7FEFF 		bl	HAL_NVIC_DisableIRQ
 442              	.LVL23:
 443 002e EFE7     		b	.L21
 444              	.LVL24:
 445              	.L26:
 166:Core/Src/usart.c ****   
 446              		.loc 1 166 5 view .LVU127
ARM GAS  C:\Users\Mr.Zhu\AppData\Local\Temp\cciZmzjh.s 			page 13


 447 0030 02F5E432 		add	r2, r2, #116736
 448 0034 D369     		ldr	r3, [r2, #28]
 449 0036 23F48023 		bic	r3, r3, #262144
 450 003a D361     		str	r3, [r2, #28]
 172:Core/Src/usart.c **** 
 451              		.loc 1 172 5 view .LVU128
 452 003c 4FF44061 		mov	r1, #3072
 453 0040 0648     		ldr	r0, .L27+12
 454              	.LVL25:
 172:Core/Src/usart.c **** 
 455              		.loc 1 172 5 is_stmt 0 view .LVU129
 456 0042 FFF7FEFF 		bl	HAL_GPIO_DeInit
 457              	.LVL26:
 175:Core/Src/usart.c ****   /* USER CODE BEGIN USART3_MspDeInit 1 */
 458              		.loc 1 175 5 is_stmt 1 view .LVU130
 459 0046 2720     		movs	r0, #39
 460 0048 FFF7FEFF 		bl	HAL_NVIC_DisableIRQ
 461              	.LVL27:
 462              		.loc 1 180 1 is_stmt 0 view .LVU131
 463 004c E0E7     		b	.L21
 464              	.L28:
 465 004e 00BF     		.align	2
 466              	.L27:
 467 0050 00380140 		.word	1073821696
 468 0054 00480040 		.word	1073760256
 469 0058 00080140 		.word	1073809408
 470 005c 000C0140 		.word	1073810432
 471              		.cfi_endproc
 472              	.LFE71:
 474              		.section	.text.HAL_UART_RxCpltCallback,"ax",%progbits
 475              		.align	1
 476              		.global	HAL_UART_RxCpltCallback
 477              		.syntax unified
 478              		.thumb
 479              		.thumb_func
 480              		.fpu softvfp
 482              	HAL_UART_RxCpltCallback:
 483              	.LVL28:
 484              	.LFB72:
 181:Core/Src/usart.c **** 
 182:Core/Src/usart.c **** /* USER CODE BEGIN 1 */
 183:Core/Src/usart.c **** #define RXBUFFERSIZE  256     //最大接收字节数
 184:Core/Src/usart.c **** char *RxBuffer;
 185:Core/Src/usart.c **** uint8_t aRxBuffer;			//接收中断缓冲
 186:Core/Src/usart.c **** uint8_t Uart1_Rx_Cnt = 0;		//接收缓冲计数
 187:Core/Src/usart.c **** 
 188:Core/Src/usart.c **** void HAL_UART_RxCpltCallback(UART_HandleTypeDef *huart)
 189:Core/Src/usart.c **** {
 485              		.loc 1 189 1 is_stmt 1 view -0
 486              		.cfi_startproc
 487              		@ args = 0, pretend = 0, frame = 0
 488              		@ frame_needed = 0, uses_anonymous_args = 0
 489              		.loc 1 189 1 is_stmt 0 view .LVU133
 490 0000 08B5     		push	{r3, lr}
 491              	.LCFI7:
 492              		.cfi_def_cfa_offset 8
 493              		.cfi_offset 3, -8
ARM GAS  C:\Users\Mr.Zhu\AppData\Local\Temp\cciZmzjh.s 			page 14


 494              		.cfi_offset 14, -4
 190:Core/Src/usart.c ****   /* Prevent unused argument(s) compilation warning */
 191:Core/Src/usart.c ****   UNUSED(huart);
 495              		.loc 1 191 3 is_stmt 1 view .LVU134
 192:Core/Src/usart.c ****   /* NOTE: This function Should not be modified, when the callback is needed,
 193:Core/Src/usart.c ****            the HAL_UART_TxCpltCallback could be implemented in the user file
 194:Core/Src/usart.c ****    */
 195:Core/Src/usart.c ****   Uart1_Rx_Cnt++;
 496              		.loc 1 195 3 view .LVU135
 497              		.loc 1 195 15 is_stmt 0 view .LVU136
 498 0002 0E4B     		ldr	r3, .L33
 499 0004 1A78     		ldrb	r2, [r3]	@ zero_extendqisi2
 500 0006 0132     		adds	r2, r2, #1
 501 0008 D2B2     		uxtb	r2, r2
 502 000a 1A70     		strb	r2, [r3]
 196:Core/Src/usart.c ****   if (*RxBuffer == '0') {
 503              		.loc 1 196 3 is_stmt 1 view .LVU137
 504              		.loc 1 196 7 is_stmt 0 view .LVU138
 505 000c 0C4B     		ldr	r3, .L33+4
 506 000e 1968     		ldr	r1, [r3]
 507 0010 0B78     		ldrb	r3, [r1]	@ zero_extendqisi2
 508              		.loc 1 196 6 view .LVU139
 509 0012 302B     		cmp	r3, #48
 510 0014 08D0     		beq	.L32
 511              	.LVL29:
 512              	.L30:
 197:Core/Src/usart.c ****     RxBuffer = RxBuffer - Uart1_Rx_Cnt;
 198:Core/Src/usart.c ****     HAL_UART_Transmit_IT(&huart1, RxBuffer, Uart1_Rx_Cnt);
 199:Core/Src/usart.c ****     Uart1_Rx_Cnt = 0;
 200:Core/Src/usart.c ****   }
 201:Core/Src/usart.c ****   RxBuffer++;
 513              		.loc 1 201 3 is_stmt 1 view .LVU140
 514              		.loc 1 201 11 is_stmt 0 view .LVU141
 515 0016 0A4B     		ldr	r3, .L33+4
 516 0018 1968     		ldr	r1, [r3]
 517 001a 0131     		adds	r1, r1, #1
 518 001c 1960     		str	r1, [r3]
 202:Core/Src/usart.c **** 	HAL_UART_Receive_IT(&huart1, RxBuffer, 1);   //再开启接收中断
 519              		.loc 1 202 2 is_stmt 1 view .LVU142
 520 001e 0122     		movs	r2, #1
 521 0020 0848     		ldr	r0, .L33+8
 522 0022 FFF7FEFF 		bl	HAL_UART_Receive_IT
 523              	.LVL30:
 203:Core/Src/usart.c **** }
 524              		.loc 1 203 1 is_stmt 0 view .LVU143
 525 0026 08BD     		pop	{r3, pc}
 526              	.LVL31:
 527              	.L32:
 197:Core/Src/usart.c ****     RxBuffer = RxBuffer - Uart1_Rx_Cnt;
 528              		.loc 1 197 5 is_stmt 1 view .LVU144
 197:Core/Src/usart.c ****     RxBuffer = RxBuffer - Uart1_Rx_Cnt;
 529              		.loc 1 197 25 is_stmt 0 view .LVU145
 530 0028 891A     		subs	r1, r1, r2
 197:Core/Src/usart.c ****     RxBuffer = RxBuffer - Uart1_Rx_Cnt;
 531              		.loc 1 197 14 view .LVU146
 532 002a 054B     		ldr	r3, .L33+4
 533 002c 1960     		str	r1, [r3]
ARM GAS  C:\Users\Mr.Zhu\AppData\Local\Temp\cciZmzjh.s 			page 15


 198:Core/Src/usart.c ****     Uart1_Rx_Cnt = 0;
 534              		.loc 1 198 5 is_stmt 1 view .LVU147
 535 002e 0548     		ldr	r0, .L33+8
 536              	.LVL32:
 198:Core/Src/usart.c ****     Uart1_Rx_Cnt = 0;
 537              		.loc 1 198 5 is_stmt 0 view .LVU148
 538 0030 FFF7FEFF 		bl	HAL_UART_Transmit_IT
 539              	.LVL33:
 199:Core/Src/usart.c ****   }
 540              		.loc 1 199 5 is_stmt 1 view .LVU149
 199:Core/Src/usart.c ****   }
 541              		.loc 1 199 18 is_stmt 0 view .LVU150
 542 0034 014B     		ldr	r3, .L33
 543 0036 0022     		movs	r2, #0
 544 0038 1A70     		strb	r2, [r3]
 545 003a ECE7     		b	.L30
 546              	.L34:
 547              		.align	2
 548              	.L33:
 549 003c 00000000 		.word	.LANCHOR2
 550 0040 00000000 		.word	.LANCHOR3
 551 0044 00000000 		.word	.LANCHOR0
 552              		.cfi_endproc
 553              	.LFE72:
 555              		.global	Uart1_Rx_Cnt
 556              		.global	aRxBuffer
 557              		.global	RxBuffer
 558              		.global	huart3
 559              		.global	huart1
 560              		.section	.bss.RxBuffer,"aw",%nobits
 561              		.align	2
 562              		.set	.LANCHOR3,. + 0
 565              	RxBuffer:
 566 0000 00000000 		.space	4
 567              		.section	.bss.Uart1_Rx_Cnt,"aw",%nobits
 568              		.set	.LANCHOR2,. + 0
 571              	Uart1_Rx_Cnt:
 572 0000 00       		.space	1
 573              		.section	.bss.aRxBuffer,"aw",%nobits
 576              	aRxBuffer:
 577 0000 00       		.space	1
 578              		.section	.bss.huart1,"aw",%nobits
 579              		.align	2
 580              		.set	.LANCHOR0,. + 0
 583              	huart1:
 584 0000 00000000 		.space	68
 584      00000000 
 584      00000000 
 584      00000000 
 584      00000000 
 585              		.section	.bss.huart3,"aw",%nobits
 586              		.align	2
 587              		.set	.LANCHOR1,. + 0
 590              	huart3:
 591 0000 00000000 		.space	68
 591      00000000 
 591      00000000 
ARM GAS  C:\Users\Mr.Zhu\AppData\Local\Temp\cciZmzjh.s 			page 16


 591      00000000 
 591      00000000 
 592              		.text
 593              	.Letext0:
 594              		.file 2 "e:\\clion\\gcc-arm-none-eabi\\10 2020-q4-major\\arm-none-eabi\\include\\machine\\_default
 595              		.file 3 "e:\\clion\\gcc-arm-none-eabi\\10 2020-q4-major\\arm-none-eabi\\include\\sys\\_stdint.h"
 596              		.file 4 "Drivers/CMSIS/Device/ST/STM32F1xx/Include/stm32f103xb.h"
 597              		.file 5 "Drivers/STM32F1xx_HAL_Driver/Inc/stm32f1xx_hal_def.h"
 598              		.file 6 "Drivers/STM32F1xx_HAL_Driver/Inc/stm32f1xx_hal_gpio.h"
 599              		.file 7 "Drivers/STM32F1xx_HAL_Driver/Inc/stm32f1xx_hal_dma.h"
 600              		.file 8 "Drivers/STM32F1xx_HAL_Driver/Inc/stm32f1xx_hal_uart.h"
 601              		.file 9 "Core/Inc/usart.h"
 602              		.file 10 "Drivers/STM32F1xx_HAL_Driver/Inc/stm32f1xx_hal_cortex.h"
 603              		.file 11 "Core/Inc/main.h"
ARM GAS  C:\Users\Mr.Zhu\AppData\Local\Temp\cciZmzjh.s 			page 17

